
C:/ECE5760_Epiphyte/lab2_DDA/DE2-115_Basic_Computer/app_software/JTAG_UART_C/JTAG_UART.elf:     file format elf32-littlenios2
C:/ECE5760_Epiphyte/lab2_DDA/DE2-115_Basic_Computer/app_software/JTAG_UART_C/JTAG_UART.elf
architecture: nios2, flags 0x00000112:
EXEC_P, HAS_SYMS, D_PAGED
start address 0x00000168

Program Header:
    LOAD off    0x00001000 vaddr 0x00000000 paddr 0x00000000 align 2**12
         filesz 0x00000020 memsz 0x00000020 flags r-x
    LOAD off    0x00001020 vaddr 0x00000020 paddr 0x00000020 align 2**12
         filesz 0x0000f2cc memsz 0x0000f2cc flags r-x
    LOAD off    0x000102ec vaddr 0x0000f2ec paddr 0x00010df8 align 2**12
         filesz 0x00001b0c memsz 0x00001b0c flags rw-
    LOAD off    0x00012904 vaddr 0x00012904 paddr 0x00012904 align 2**12
         filesz 0x00000000 memsz 0x0000025c flags rw-

Sections:
Idx Name          Size      VMA       LMA       File off  Algn
  0 .entry        00000020  00000000  00000000  00001000  2**5
                  CONTENTS, ALLOC, LOAD, READONLY, CODE
  1 .exceptions   00000148  00000020  00000020  00001020  2**2
                  CONTENTS, ALLOC, LOAD, READONLY, CODE
  2 .text         0000ece4  00000168  00000168  00001168  2**2
                  CONTENTS, ALLOC, LOAD, READONLY, CODE
  3 .rodata       000004a0  0000ee4c  0000ee4c  0000fe4c  2**2
                  CONTENTS, ALLOC, LOAD, READONLY, DATA
  4 .rwdata       00001b0c  0000f2ec  00010df8  000102ec  2**2
                  CONTENTS, ALLOC, LOAD, DATA, SMALL_DATA
  5 .bss          0000025c  00012904  00012904  00012904  2**2
                  ALLOC, SMALL_DATA
  6 .comment      00000023  00000000  00000000  00011df8  2**0
                  CONTENTS, READONLY
  7 .debug_aranges 00000e78  00000000  00000000  00011e20  2**3
                  CONTENTS, READONLY, DEBUGGING
  8 .debug_pubnames 0000156b  00000000  00000000  00012c98  2**0
                  CONTENTS, READONLY, DEBUGGING
  9 .debug_info   000251a8  00000000  00000000  00014203  2**0
                  CONTENTS, READONLY, DEBUGGING
 10 .debug_abbrev 000094d3  00000000  00000000  000393ab  2**0
                  CONTENTS, READONLY, DEBUGGING
 11 .debug_line   00016a24  00000000  00000000  0004287e  2**0
                  CONTENTS, READONLY, DEBUGGING
 12 .debug_frame  00001990  00000000  00000000  000592a4  2**2
                  CONTENTS, READONLY, DEBUGGING
 13 .debug_str    000030c6  00000000  00000000  0005ac34  2**0
                  CONTENTS, READONLY, DEBUGGING
 14 .debug_loc    00010983  00000000  00000000  0005dcfa  2**0
                  CONTENTS, READONLY, DEBUGGING
 15 .debug_alt_sim_info 00000010  00000000  00000000  0006e680  2**2
                  CONTENTS, READONLY, DEBUGGING
 16 .debug_ranges 00000d40  00000000  00000000  0006e690  2**3
                  CONTENTS, READONLY, DEBUGGING
 17 .thread_model 00000003  00000000  00000000  0007251c  2**0
                  CONTENTS, READONLY
 18 .cpu          00000003  00000000  00000000  0007251f  2**0
                  CONTENTS, READONLY
 19 .qsys         00000001  00000000  00000000  00072522  2**0
                  CONTENTS, READONLY
 20 .simulation_enabled 00000001  00000000  00000000  00072523  2**0
                  CONTENTS, READONLY
 21 .sysid_hash   00000004  00000000  00000000  00072524  2**0
                  CONTENTS, READONLY
 22 .sysid_base   00000004  00000000  00000000  00072528  2**0
                  CONTENTS, READONLY
 23 .sysid_time   00000004  00000000  00000000  0007252c  2**0
                  CONTENTS, READONLY
 24 .stderr_dev   00000009  00000000  00000000  00072530  2**0
                  CONTENTS, READONLY
 25 .stdin_dev    00000009  00000000  00000000  00072539  2**0
                  CONTENTS, READONLY
 26 .stdout_dev   00000009  00000000  00000000  00072542  2**0
                  CONTENTS, READONLY
 27 .sopc_system_name 0000000b  00000000  00000000  0007254b  2**0
                  CONTENTS, READONLY
 28 .jdi          00004aa8  00000000  00000000  00072556  2**0
                  CONTENTS, READONLY
 29 .sopcinfo     00047e89  00000000  00000000  00076ffe  2**0
                  CONTENTS, READONLY
SYMBOL TABLE:
00000000 l    d  .entry	00000000 .entry
00000020 l    d  .exceptions	00000000 .exceptions
00000168 l    d  .text	00000000 .text
0000ee4c l    d  .rodata	00000000 .rodata
0000f2ec l    d  .rwdata	00000000 .rwdata
00012904 l    d  .bss	00000000 .bss
00000000 l    d  .comment	00000000 .comment
00000000 l    d  .debug_aranges	00000000 .debug_aranges
00000000 l    d  .debug_pubnames	00000000 .debug_pubnames
00000000 l    d  .debug_info	00000000 .debug_info
00000000 l    d  .debug_abbrev	00000000 .debug_abbrev
00000000 l    d  .debug_line	00000000 .debug_line
00000000 l    d  .debug_frame	00000000 .debug_frame
00000000 l    d  .debug_str	00000000 .debug_str
00000000 l    d  .debug_loc	00000000 .debug_loc
00000000 l    d  .debug_alt_sim_info	00000000 .debug_alt_sim_info
00000000 l    d  .debug_ranges	00000000 .debug_ranges
000001a0 l       .text	00000000 alt_after_alt_main
00000000 l    df *ABS*	00000000 alt_irq_handler.c
00000000 l    df *ABS*	00000000 JTAG_UART.c
00000000 l    df *ABS*	00000000 fp-bit.c
00000000 l    df *ABS*	00000000 dp-bit.c
00000000 l    df *ABS*	00000000 fp-bit.c
00000000 l    df *ABS*	00000000 fp-bit.c
00000000 l    df *ABS*	00000000 dp-bit.c
00000000 l    df *ABS*	00000000 fp-bit.c
00000000 l    df *ABS*	00000000 atof.c
00000000 l    df *ABS*	00000000 malloc.c
00000000 l    df *ABS*	00000000 mallocr.c
00000000 l    df *ABS*	00000000 printf.c
00000000 l    df *ABS*	00000000 putchar.c
00000000 l    df *ABS*	00000000 puts.c
00000000 l    df *ABS*	00000000 sbrkr.c
00000000 l    df *ABS*	00000000 strlen.c
00000000 l    df *ABS*	00000000 strstr.c
000014e4 l     F .text	00000134 critical_factorization
00000000 l    df *ABS*	00000000 strtod.c
00001c78 l     F .text	00000048 match
0000f708 l     O .rwdata	00000014 fpi.1950
0000ef4c l     O .rodata	00000028 tinytens
0000f6f4 l     O .rwdata	00000014 fpinan.1986
00000000 l    df *ABS*	00000000 vfprintf.c
000033cc l     F .text	00000058 __sprint_r
0000efe4 l     O .rodata	00000010 blanks.3452
0000efd4 l     O .rodata	00000010 zeroes.3453
00000000 l    df *ABS*	00000000 wsetup.c
00000000 l    df *ABS*	00000000 dtoa.c
00005448 l     F .text	00000244 quorem
00000000 l    df *ABS*	00000000 fflush.c
00000000 l    df *ABS*	00000000 findfp.c
00006e70 l     F .text	00000058 std
00006f7c l     F .text	00000008 __fp_lock
00006f84 l     F .text	00000008 __fp_unlock
00000000 l    df *ABS*	00000000 mallocr.c
00000000 l    df *ABS*	00000000 fvwrite.c
00000000 l    df *ABS*	00000000 fwalk.c
00000000 l    df *ABS*	00000000 gdtoa-gethex.c
00007bc0 l     F .text	00000024 htinit
00007c4c l     F .text	000000b0 rshift
00000000 l    df *ABS*	00000000 gdtoa-hexnan.c
000084f8 l     F .text	0000004c L_shift
00000000 l    df *ABS*	00000000 impure.c
0000f71c l     O .rwdata	00000400 impure_data
00000000 l    df *ABS*	00000000 int_errno.c
00000000 l    df *ABS*	00000000 locale.c
00010dcc l     O .rwdata	00000004 charset
0000f034 l     O .rodata	00000030 lconv
00000000 l    df *ABS*	00000000 makebuf.c
00000000 l    df *ABS*	00000000 memchr.c
00000000 l    df *ABS*	00000000 memcmp.c
00000000 l    df *ABS*	00000000 memcpy.c
00000000 l    df *ABS*	00000000 memmove.c
00000000 l    df *ABS*	00000000 memset.c
00000000 l    df *ABS*	00000000 mprec.c
0000f17c l     O .rodata	0000000c p05.2458
00000000 l    df *ABS*	00000000 putc.c
00000000 l    df *ABS*	00000000 mallocr.c
00000000 l    df *ABS*	00000000 s_isinfd.c
00000000 l    df *ABS*	00000000 s_isnand.c
00000000 l    df *ABS*	00000000 stdio.c
00000000 l    df *ABS*	00000000 strchr.c
00000000 l    df *ABS*	00000000 strcmp.c
00000000 l    df *ABS*	00000000 wbuf.c
00000000 l    df *ABS*	00000000 writer.c
00000000 l    df *ABS*	00000000 mallocr.c
00000000 l    df *ABS*	00000000 closer.c
00000000 l    df *ABS*	00000000 fclose.c
00000000 l    df *ABS*	00000000 fstatr.c
00000000 l    df *ABS*	00000000 isattyr.c
00000000 l    df *ABS*	00000000 lseekr.c
00000000 l    df *ABS*	00000000 readr.c
00000000 l    df *ABS*	00000000 libgcc2.c
00000000 l    df *ABS*	00000000 libgcc2.c
00000000 l    df *ABS*	00000000 libgcc2.c
00000000 l    df *ABS*	00000000 fp-bit.c
00000000 l    df *ABS*	00000000 fp-bit.c
00000000 l    df *ABS*	00000000 fp-bit.c
00000000 l    df *ABS*	00000000 dp-bit.c
0000bde4 l     F .text	00000410 _fpadd_parts
00000000 l    df *ABS*	00000000 dp-bit.c
00000000 l    df *ABS*	00000000 dp-bit.c
00000000 l    df *ABS*	00000000 dp-bit.c
00000000 l    df *ABS*	00000000 dp-bit.c
00000000 l    df *ABS*	00000000 dp-bit.c
00000000 l    df *ABS*	00000000 dp-bit.c
00000000 l    df *ABS*	00000000 dp-bit.c
00000000 l    df *ABS*	00000000 dp-bit.c
00000000 l    df *ABS*	00000000 dp-bit.c
00000000 l    df *ABS*	00000000 dp-bit.c
00000000 l    df *ABS*	00000000 dp-bit.c
00000000 l    df *ABS*	00000000 dp-bit.c
00000000 l    df *ABS*	00000000 lib2-divmod.c
0000cf98 l     F .text	0000007c udivmodsi4
00000000 l    df *ABS*	00000000 lib2-mul.c
00000000 l    df *ABS*	00000000 libgcc2.c
00000000 l    df *ABS*	00000000 libgcc2.c
00000000 l    df *ABS*	00000000 libgcc2.c
00000000 l    df *ABS*	00000000 fp-bit.c
00000000 l    df *ABS*	00000000 dp-bit.c
00000000 l    df *ABS*	00000000 dp-bit.c
00000000 l    df *ABS*	00000000 alt_close.c
00000000 l    df *ABS*	00000000 alt_dev.c
0000d824 l     F .text	00000008 alt_dev_null_write
00000000 l    df *ABS*	00000000 alt_errno.c
00000000 l    df *ABS*	00000000 alt_fstat.c
00000000 l    df *ABS*	00000000 alt_isatty.c
00000000 l    df *ABS*	00000000 alt_load.c
00000000 l    df *ABS*	00000000 alt_lseek.c
00000000 l    df *ABS*	00000000 alt_main.c
00000000 l    df *ABS*	00000000 alt_malloc_lock.c
00000000 l    df *ABS*	00000000 alt_read.c
00000000 l    df *ABS*	00000000 alt_release_fd.c
00000000 l    df *ABS*	00000000 alt_sbrk.c
00010de8 l     O .rwdata	00000004 heap_end
00000000 l    df *ABS*	00000000 alt_write.c
00000000 l    df *ABS*	00000000 alt_sys_init.c
0000fcd0 l     O .rwdata	00001060 JTAG_UART
00010d30 l     O .rwdata	0000002c DDA_Options
00010d5c l     O .rwdata	0000002c Green_LEDs
00010d88 l     O .rwdata	0000002c HEX3_HEX0
00000000 l    df *ABS*	00000000 altera_avalon_jtag_uart_fd.c
00000000 l    df *ABS*	00000000 altera_avalon_jtag_uart_init.c
0000df74 l     F .text	00000054 altera_avalon_jtag_uart_timeout
0000e048 l     F .text	00000134 altera_avalon_jtag_uart_irq
00000000 l    df *ABS*	00000000 altera_avalon_jtag_uart_ioctl.c
00000000 l    df *ABS*	00000000 altera_avalon_jtag_uart_read.c
00000000 l    df *ABS*	00000000 altera_avalon_jtag_uart_write.c
00000000 l    df *ABS*	00000000 alt_alarm_start.c
00000000 l    df *ABS*	00000000 alt_dcache_flush_all.c
00000000 l    df *ABS*	00000000 alt_dev_llist_insert.c
00000000 l    df *ABS*	00000000 alt_icache_flush_all.c
00000000 l    df *ABS*	00000000 alt_iic.c
00000000 l    df *ABS*	00000000 alt_iic_isr_register.c
00000000 l    df *ABS*	00000000 alt_io_redirect.c
0000e700 l     F .text	00000078 alt_open_fd
00000000 l    df *ABS*	00000000 alt_irq_vars.c
00000000 l    df *ABS*	00000000 alt_open.c
00000000 l    df *ABS*	00000000 alt_tick.c
00000000 l    df *ABS*	00000000 altera_nios2_qsys_irq.c
00000000 l    df *ABS*	00000000 alt_find_dev.c
00000000 l    df *ABS*	00000000 alt_find_file.c
00000000 l    df *ABS*	00000000 alt_get_fd.c
00000000 l    df *ABS*	00000000 exit.c
00000000 l    df *ABS*	00000000 __call_atexit.c
0000ec80 l     F .text	00000004 register_fini
00000000 l    df *ABS*	00000000 alt_exit.c
00001328 g     F .text	0000001c putchar
00009160 g     F .text	00000094 _mprec_log10
0000924c g     F .text	00000088 __any_on
0000adac g     F .text	00000070 _isatty_r
0000f154 g     O .rodata	00000028 __mprec_tinytens
0000dad0 g     F .text	00000050 alt_main
0000134c g     F .text	000000a0 _puts_r
00012a60 g     O .bss	00000100 alt_irq
0000ae1c g     F .text	00000078 _lseek_r
00010df8 g       *ABS*	00000000 __flash_rwdata_start
0000c904 g     F .text	00000088 __eqdf2
00012b60 g       *ABS*	00000000 __alt_heap_start
000012b0 g     F .text	00000044 printf
0000a638 g     F .text	00000068 __sseek
00006ed8 g     F .text	000000a4 __sinit
0000a918 g     F .text	00000130 __swbuf_r
000087b0 g     F .text	00000084 _setlocale_r
00006fd8 g     F .text	0000009c __sfmoreglue
0000db24 g     F .text	00000004 __malloc_unlock
00001cc0 g     F .text	000015cc _strtod_r
00008bdc g     F .text	000000e0 memmove
00006fc8 g     F .text	00000010 _cleanup
000092d4 g     F .text	000000bc _Balloc
000006ac g     F .text	00000094 __fixsfsi
0000ca14 g     F .text	00000088 __gtdf2
00000000  w      *UND*	00000000 __errno
00000000 g     F .entry	0000000c __reset
00000020 g       *ABS*	00000000 __flash_exceptions_start
0000ad38 g     F .text	00000074 _fstat_r
00012910 g     O .bss	00000004 errno
0000087c g     F .text	0000002c __make_fp
00012924 g     O .bss	00000004 alt_argv
00018db4 g       *ABS*	00000000 _gp
0000fb50 g     O .rwdata	00000180 alt_fd_list
00001344 g     F .text	00000008 _putchar_r
0000ea7c g     F .text	00000070 alt_find_dev
00008b3c g     F .text	000000a0 memcpy
00008544 g     F .text	00000248 __hexnan
00006fbc g     F .text	0000000c _cleanup_r
0000cc34 g     F .text	000000f8 __floatsidf
0000e778 g     F .text	00000098 alt_io_redirect
0000cb24 g     F .text	00000088 __ltdf2
000013ec g     F .text	00000014 puts
000090b0 g     F .text	000000b0 __ratio
0000e1f0 g     F .text	00000168 altera_avalon_jtag_uart_read
00000b5c g     F .text	00000014 malloc
000012f4 g     F .text	00000034 _printf_r
0000d0d4 g     F .text	00000008 __udivsi3
0000d8c0 g     F .text	00000098 isatty
0000f064 g     O .rodata	000000c8 __mprec_tens
0000878c g     F .text	00000008 __locale_charset
0000af0c g     F .text	000000a4 __fixunsdfsi
00012904 g     O .bss	00000004 __malloc_top_pad
00010dc8 g     O .rwdata	00000004 __mb_cur_max
00008794 g     F .text	0000000c _localeconv_r
00009a38 g     F .text	0000003c __i2b
000075a4 g     F .text	0000049c __sfvwrite_r
00001400 g     F .text	00000070 _sbrk_r
0000ae94 g     F .text	00000078 _read_r
0000fb1c g     O .rwdata	0000000c __lc_ctype
00010de0 g     O .rwdata	00000004 alt_max_fd
000008a8 g     F .text	00000138 __unpack_d
0000ac14 g     F .text	00000110 _fclose_r
00006e3c g     F .text	00000034 fflush
00012908 g     O .bss	00000004 __malloc_max_sbrked_mem
0000c274 g     F .text	00000074 __adddf3
0000bc7c g     F .text	00000078 __nesf2
00008f90 g     F .text	00000120 __b2d
0000b61c g     F .text	00000660 __umoddi3
0000da1c g     F .text	000000b4 lseek
00010dc4 g     O .rwdata	00000004 _global_impure_ptr
00009fcc g     F .text	000005f4 _realloc_r
00012b60 g       *ABS*	00000000 __bss_end
0000e698 g     F .text	00000068 alt_iic_isr_register
0000e9c8 g     F .text	000000ac alt_tick
00012960 g     O .bss	00000100 __hexdig
0000afb0 g     F .text	0000066c __udivdi3
0000f12c g     O .rodata	00000028 __mprec_bigtens
00009cc0 g     F .text	00000120 __s2b
0000ce04 g     F .text	00000194 __floatunsidf
00008eb0 g     F .text	00000060 __mcmp
00006fa4 g     F .text	00000018 __fp_lock_all
0000e5e0 g     F .text	00000018 alt_ic_irq_enabled
0000e994 g     F .text	00000034 alt_alarm_stop
0001292c g     O .bss	00000004 alt_irq_active
000000ec g     F .exceptions	0000007c alt_irq_handler
0000fb28 g     O .rwdata	00000028 alt_dev_null
000007b4 g     F .text	000000c8 __unpack_f
0000e568 g     F .text	00000004 alt_dcache_flush_all
00008d7c g     F .text	00000070 __hi0bits
0000cd2c g     F .text	000000d8 __fixdfsi
000033b0 g     F .text	0000001c strtod
00010df8 g       *ABS*	00000000 __ram_rwdata_end
00010dd8 g     O .rwdata	00000008 alt_dev_list
0000dcf4 g     F .text	00000110 write
00009ee4 g     F .text	000000e8 _putc_r
00000b40 g     F .text	00000008 atof
0000bcf4 g     F .text	00000078 __gtsf2
0000f2ec g       *ABS*	00000000 __ram_rodata_end
0000d82c g     F .text	00000094 fstat
00000000 g       *ABS*	00000000 __alt_mem_SDRAM
0000cbac g     F .text	00000088 __ledf2
00009ba0 g     F .text	00000120 __pow5mult
00012914 g     O .bss	00000004 __nlocale_changed
0000d0dc g     F .text	00000008 __umodsi3
00012b60 g       *ABS*	00000000 end
000009e0 g     F .text	00000160 __pack_f
0000dfc8 g     F .text	00000080 altera_avalon_jtag_uart_init
08000000 g       *ABS*	00000000 __alt_stack_pointer
0000d240 g     F .text	00000080 __clzsi2
0000e358 g     F .text	0000017c altera_avalon_jtag_uart_write
00006ec8 g     F .text	00000004 __sfp_lock_acquire
000089e4 g     F .text	000000e4 memchr
00003424 g     F .text	00001ec4 ___vfprintf_internal_r
00007290 g     F .text	00000314 _free_r
0000ec84 g     F .text	000001b0 __call_exitprocs
00012918 g     O .bss	00000004 __mlocale_changed
00010dbc g     O .rwdata	00000004 __malloc_sbrk_base
00000168 g     F .text	0000003c _start
00012930 g     O .bss	00000004 _alt_tick_rate
00001618 g     F .text	00000660 strstr
00009698 g     F .text	0000014c __lshift
00012934 g     O .bss	00000004 _alt_nticks
0000db28 g     F .text	00000114 read
0000de24 g     F .text	00000080 alt_sys_init
000097e4 g     F .text	00000254 __multiply
0000df3c g     F .text	00000038 altera_avalon_jtag_uart_close
0000d0e4 g     F .text	00000038 __mulsi3
0000f2ec g       *ABS*	00000000 __ram_rwdata_start
0000ee4c g       *ABS*	00000000 __ram_rodata_start
00012938 g     O .bss	00000028 __malloc_current_mallinfo
00009390 g     F .text	0000017c __d2b
0000df14 g     F .text	00000028 altera_avalon_jtag_uart_read_fd
0000eba8 g     F .text	000000a0 alt_get_fd
0000d67c g     F .text	000000c8 __fpcmp_parts_d
0000aba4 g     F .text	00000070 _close_r
00008ac8 g     F .text	00000074 memcmp
0000dec4 g     F .text	00000028 altera_avalon_jtag_uart_close_fd
00012b60 g       *ABS*	00000000 __alt_stack_base
0000dea4 g     F .text	00000020 altera_avalon_jtag_uart_ioctl_fd
0000530c g     F .text	0000013c __swsetup_r
0000c6ac g     F .text	00000258 __divdf3
00007074 g     F .text	000000f0 __sfp
000091f4 g     F .text	00000058 __copybits
0000f2ec g     O .rwdata	00000408 __malloc_av_
00006ed4 g     F .text	00000004 __sinit_lock_release
0000c2e8 g     F .text	000003c4 __muldf3
0000a71c g     F .text	00000060 __sread
0000eaec g     F .text	000000bc alt_find_file
0000e56c g     F .text	00000070 alt_dev_llist_insert
0000db20 g     F .text	00000004 __malloc_lock
0000dca4 g     F .text	00000050 sbrk
00006c40 g     F .text	000001fc _fflush_r
0000aadc g     F .text	000000c8 _calloc_r
00012904 g       *ABS*	00000000 __bss_start
00008cbc g     F .text	00000098 memset
000001c8 g     F .text	000004e4 main
00012928 g     O .bss	00000004 alt_envp
0001290c g     O .bss	00000004 __malloc_max_total_mem
0000deec g     F .text	00000028 altera_avalon_jtag_uart_write_fd
0000aa48 g     F .text	0000001c __swbuf
0000bd6c g     F .text	00000078 __ltsf2
0000a630 g     F .text	00000008 __sclose
08000000 g       *ABS*	00000000 __alt_heap_limit
0000ad24 g     F .text	00000014 fclose
00000740 g     F .text	00000074 __truncdfsf2
0000568c g     F .text	000015b4 _dtoa_r
00000b70 g     F .text	00000740 _malloc_r
00010de4 g     O .rwdata	00000004 alt_errno
00007b08 g     F .text	000000b8 _fwalk
00010db4 g     O .rwdata	00000004 dda_ptr
00009de0 g     F .text	00000104 putc
0000d014 g     F .text	00000060 __divsi3
0000f188 g     O .rodata	00000014 __thenan_df
00007164 g     F .text	0000012c _malloc_trim_r
0000a85c g     F .text	000000bc strcmp
0000ee4c g       *ABS*	00000000 __flash_rodata_start
0000c98c g     F .text	00000088 __nedf2
0000de04 g     F .text	00000020 alt_irq_init
0000dc3c g     F .text	00000068 alt_release_fd
0000f19c g     O .rodata	00000100 __clz_tab
0001291c g     O .bss	00000004 _PathLocale
0000328c g     F .text	00000124 strtof
0000aa64 g     F .text	00000078 _write_r
00008834 g     F .text	0000001c setlocale
00010dc0 g     O .rwdata	00000004 _impure_ptr
00012920 g     O .bss	00000004 alt_argc
00000020 g       .exceptions	00000000 alt_irq_entry
00008f10 g     F .text	00000080 __ulp
0000a5c0 g     F .text	00000040 __isinfd
00006f8c g     F .text	00000018 __fp_unlock_all
00010dd0 g     O .rwdata	00000008 alt_fs_list
00000020 g       *ABS*	00000000 __ram_exceptions_start
000087a0 g     F .text	00000010 localeconv
0000e678 g     F .text	00000020 alt_ic_isr_register
00007be4 g     F .text	00000068 __hexdig_init
00010df8 g       *ABS*	00000000 _edata
00012b60 g       *ABS*	00000000 _end
00000168 g       *ABS*	00000000 __ram_exceptions_end
0000e17c g     F .text	00000074 altera_avalon_jtag_uart_ioctl
0000e638 g     F .text	00000040 alt_ic_irq_disable
0000a6a0 g     F .text	0000007c __swrite
00010db8 g     O .rwdata	00000004 __malloc_trim_threshold
0000ea74 g     F .text	00000008 altera_nios2_qsys_irq_init
0000ec48 g     F .text	00000038 exit
00007a40 g     F .text	000000c8 _fwalk_reent
0000950c g     F .text	0000018c __mdiff
0000d074 g     F .text	00000060 __modsi3
08000000 g       *ABS*	00000000 __alt_data_end
00000020 g     F .exceptions	00000000 alt_exception
00006ecc g     F .text	00000004 __sfp_lock_release
0000d2c0 g     F .text	000000a8 __fpcmp_parts_f
0000ee34 g     F .text	00000014 _exit
0000a600 g     F .text	00000030 __isnand
0000e4d4 g     F .text	00000094 alt_alarm_start
0000d11c g     F .text	00000124 __muldi3
00008850 g     F .text	00000194 __smakebuf_r
00001470 g     F .text	00000074 strlen
0000e810 g     F .text	00000184 open
0000ca9c g     F .text	00000088 __gedf2
00007cfc g     F .text	000007fc __gethex
0000e5dc g     F .text	00000004 alt_icache_flush_all
0000a77c g     F .text	000000e0 strchr
00010dec g     O .rwdata	00000004 alt_priority_mask
0000e5f8 g     F .text	00000040 alt_ic_irq_enable
000052e8 g     F .text	00000024 __vfprintf_internal
0000c1f4 g     F .text	00000080 __subdf3
000001a4 g     F .text	00000024 put_jtag
00008dec g     F .text	000000c4 __lo0bits
00010df0 g     O .rwdata	00000008 alt_alarm_list
09000000 g       *ABS*	00000000 __alt_mem_Onchip_memory
0000d744 g     F .text	000000e0 close
0000d958 g     F .text	000000c4 alt_load
0000d368 g     F .text	00000314 __pack_d
00000b48 g     F .text	00000014 free
00006ed0 g     F .text	00000004 __sinit_lock_acquire
00009a74 g     F .text	0000012c __multadd
00008d54 g     F .text	00000028 _Bfree



Disassembly of section .entry:

00000000 <__reset>:
 * Jump to the _start entry point in the .text section if reset code
 * is allowed or if optimizing for RTL simulation.
 */
#if defined(ALT_ALLOW_CODE_AT_RESET) || defined(ALT_SIM_OPTIMIZE)
    /* Jump to the _start entry point in the .text section. */
    movhi r1, %hi(_start)
   0:	00400034 	movhi	at,0
    ori r1, r1, %lo(_start)
   4:	08405a14 	ori	at,at,360
    jmp r1
   8:	0800683a 	jmp	at
	...

Disassembly of section .exceptions:

00000020 <alt_exception>:
         * Process an exception.  For all exceptions we must preserve all
         * caller saved registers on the stack (See the Nios2 ABI
         * documentation for details).
         */

        addi  sp, sp, -76
  20:	deffed04 	addi	sp,sp,-76

#endif

#endif

        stw   ra,  0(sp)
  24:	dfc00015 	stw	ra,0(sp)
        /*
         * Leave a gap in the stack frame at 4(sp) for the muldiv handler to
         * store zero into.
         */

        stw   r1,   8(sp)
  28:	d8400215 	stw	at,8(sp)
        stw   r2,  12(sp)
  2c:	d8800315 	stw	r2,12(sp)
        stw   r3,  16(sp)
  30:	d8c00415 	stw	r3,16(sp)
        stw   r4,  20(sp)
  34:	d9000515 	stw	r4,20(sp)
        stw   r5,  24(sp)
  38:	d9400615 	stw	r5,24(sp)
        stw   r6,  28(sp)
  3c:	d9800715 	stw	r6,28(sp)
        stw   r7,  32(sp)
  40:	d9c00815 	stw	r7,32(sp)

        rdctl r5, estatus
  44:	000b307a 	rdctl	r5,estatus

        stw   r8,  36(sp)
  48:	da000915 	stw	r8,36(sp)
        stw   r9,  40(sp)
  4c:	da400a15 	stw	r9,40(sp)
        stw   r10, 44(sp)
  50:	da800b15 	stw	r10,44(sp)
        stw   r11, 48(sp)
  54:	dac00c15 	stw	r11,48(sp)
        stw   r12, 52(sp)
  58:	db000d15 	stw	r12,52(sp)
        stw   r13, 56(sp)
  5c:	db400e15 	stw	r13,56(sp)
        stw   r14, 60(sp)
  60:	db800f15 	stw	r14,60(sp)
        stw   r15, 64(sp)
  64:	dbc01015 	stw	r15,64(sp)
        /*
         * ea-4 contains the address of the instruction being executed
         * when the exception occured. For interrupt exceptions, we will
         * will be re-issue the isntruction. Store it in 72(sp)
         */
        stw   r5,  68(sp)  /* estatus */
  68:	d9401115 	stw	r5,68(sp)
        addi  r15, ea, -4  /* instruction that caused exception */
  6c:	ebffff04 	addi	r15,ea,-4
        stw   r15,  72(sp)
  70:	dbc01215 	stw	r15,72(sp)
#else
        /*
         * Test to see if the exception was a software exception or caused 
         * by an external interrupt, and vector accordingly.
         */
        rdctl r4, ipending
  74:	0009313a 	rdctl	r4,ipending
        andi  r2, r5, 1
  78:	2880004c 	andi	r2,r5,1
        beq   r2, zero, .Lnot_irq
  7c:	10000326 	beq	r2,zero,8c <alt_exception+0x6c>
        beq   r4, zero, .Lnot_irq
  80:	20000226 	beq	r4,zero,8c <alt_exception+0x6c>
        /*
         * Now that all necessary registers have been preserved, call 
         * alt_irq_handler() to process the interrupts.
         */

        call alt_irq_handler
  84:	00000ec0 	call	ec <alt_irq_handler>

        .section .exceptions.irqreturn, "xa"

        br    .Lexception_exit
  88:	00000306 	br	98 <alt_exception+0x78>
         * upon completion, so we write ea (address of instruction *after*
         * the one where the exception occured) into 72(sp). The actual
         * instruction that caused the exception is written in r2, which these
         * handlers will utilize.
         */
        stw   ea,  72(sp)  /* Don't re-issue */
  8c:	df401215 	stw	ea,72(sp)
        ldw   r2, -4(ea)   /* Instruction that caused exception */
  90:	e8bfff17 	ldw	r2,-4(ea)
#ifdef NIOS2_HAS_DEBUG_STUB
       /*
        *  Either tell the user now (if there is a debugger attached) or go into
        *  the debug monitor which will loop until a debugger is attached.
        */
        break
  94:	003da03a 	break	0
        /* 
         * Restore the saved registers, so that all general purpose registers 
         * have been restored to their state at the time the interrupt occured.
         */

        ldw   r5,  68(sp)
  98:	d9401117 	ldw	r5,68(sp)
        ldw   ea,  72(sp)  /* This becomes the PC once eret is executed */
  9c:	df401217 	ldw	ea,72(sp)
        ldw   ra,   0(sp)
  a0:	dfc00017 	ldw	ra,0(sp)

        wrctl estatus, r5
  a4:	2801707a 	wrctl	estatus,r5

        ldw   r1,   8(sp)
  a8:	d8400217 	ldw	at,8(sp)
        ldw   r2,  12(sp)
  ac:	d8800317 	ldw	r2,12(sp)
        ldw   r3,  16(sp)
  b0:	d8c00417 	ldw	r3,16(sp)
        ldw   r4,  20(sp)
  b4:	d9000517 	ldw	r4,20(sp)
        ldw   r5,  24(sp)
  b8:	d9400617 	ldw	r5,24(sp)
        ldw   r6,  28(sp)
  bc:	d9800717 	ldw	r6,28(sp)
        ldw   r7,  32(sp)
  c0:	d9c00817 	ldw	r7,32(sp)
#ifdef ALT_STACK_CHECK
        ldw   et, %gprel(alt_exception_old_stack_limit)(gp)
#endif
#endif

        ldw   r8,  36(sp)
  c4:	da000917 	ldw	r8,36(sp)
        ldw   r9,  40(sp)
  c8:	da400a17 	ldw	r9,40(sp)
        ldw   r10, 44(sp)
  cc:	da800b17 	ldw	r10,44(sp)
        ldw   r11, 48(sp)
  d0:	dac00c17 	ldw	r11,48(sp)
        ldw   r12, 52(sp)
  d4:	db000d17 	ldw	r12,52(sp)
        ldw   r13, 56(sp)
  d8:	db400e17 	ldw	r13,56(sp)
        ldw   r14, 60(sp)
  dc:	db800f17 	ldw	r14,60(sp)
        ldw   r15, 64(sp)
  e0:	dbc01017 	ldw	r15,64(sp)
#endif

        ldw   sp,  76(sp)

#else
        addi  sp, sp, 76
  e4:	dec01304 	addi	sp,sp,76

        /*
         * Return to the interrupted instruction.
         */

        eret
  e8:	ef80083a 	eret

000000ec <alt_irq_handler>:
 * instruction is present if the macro ALT_CI_INTERRUPT_VECTOR defined.
 */

void alt_irq_handler (void) __attribute__ ((section (".exceptions")));
void alt_irq_handler (void)
{
  ec:	defffe04 	addi	sp,sp,-8
  f0:	dfc00115 	stw	ra,4(sp)
  f4:	dc000015 	stw	r16,0(sp)
#ifndef NIOS2_EIC_PRESENT
static ALT_INLINE alt_u32 ALT_ALWAYS_INLINE alt_irq_pending (void)
{
  alt_u32 active;

  NIOS2_READ_IPENDING (active);
  f8:	000d313a 	rdctl	r6,ipending
  fc:	04000074 	movhi	r16,1
 100:	840a9804 	addi	r16,r16,10848
     * called to clear the interrupt condition.
     */

    do
    {
      if (active & mask)
 104:	3080004c 	andi	r2,r6,1
 108:	1005003a 	cmpeq	r2,r2,zero
 10c:	10000a1e 	bne	r2,zero,138 <alt_irq_handler+0x4c>
 110:	0009883a 	mov	r4,zero
      { 
#ifdef ALT_ENHANCED_INTERRUPT_API_PRESENT
        alt_irq[i].handler(alt_irq[i].context); 
 114:	200490fa 	slli	r2,r4,3
 118:	1405883a 	add	r2,r2,r16
 11c:	10c00017 	ldw	r3,0(r2)
 120:	11000117 	ldw	r4,4(r2)
 124:	183ee83a 	callr	r3
 128:	0005313a 	rdctl	r2,ipending

    } while (1);

    active = alt_irq_pending ();
    
  } while (active);
 12c:	10000a26 	beq	r2,zero,158 <alt_irq_handler+0x6c>
 130:	100d883a 	mov	r6,r2
 134:	003ff306 	br	104 <alt_irq_handler+0x18>
 138:	00c00044 	movi	r3,1
 13c:	0009883a 	mov	r4,zero
 140:	180b883a 	mov	r5,r3
#else
        alt_irq[i].handler(alt_irq[i].context, i); 
#endif
        break;
      }
      mask <<= 1;
 144:	18c7883a 	add	r3,r3,r3
      i++;
 148:	2149883a 	add	r4,r4,r5
     * called to clear the interrupt condition.
     */

    do
    {
      if (active & mask)
 14c:	30c4703a 	and	r2,r6,r3
 150:	103ff01e 	bne	r2,zero,114 <alt_irq_handler+0x28>
 154:	003ffb06 	br	144 <alt_irq_handler+0x58>
  /*
   * Notify the operating system that interrupt processing is complete.
   */ 

  ALT_OS_INT_EXIT();
}
 158:	dfc00117 	ldw	ra,4(sp)
 15c:	dc000017 	ldw	r16,0(sp)
 160:	dec00204 	addi	sp,sp,8
 164:	f800283a 	ret

Disassembly of section .text:

00000168 <_start>:
#if (NIOS2_NUM_OF_SHADOW_REG_SETS == 0)    
    /*
     * Now that the caches are initialized, set up the stack pointer.
     * The value provided by the linker is assumed to be correctly aligned.
     */
    movhi sp, %hi(__alt_stack_pointer)
     168:	06c20034 	movhi	sp,2048
    ori sp, sp, %lo(__alt_stack_pointer)
     16c:	dec00014 	ori	sp,sp,0

    /* Set up the global pointer. */
    movhi gp, %hi(_gp)
     170:	06800074 	movhi	gp,1
    ori gp, gp, %lo(_gp)
     174:	d6a36d14 	ori	gp,gp,36276
 */
#ifndef ALT_SIM_OPTIMIZE
    /* Log that the BSS is about to be cleared. */
    ALT_LOG_PUTS(alt_log_msg_bss)

    movhi r2, %hi(__bss_start)
     178:	00800074 	movhi	r2,1
    ori r2, r2, %lo(__bss_start)
     17c:	108a4114 	ori	r2,r2,10500

    movhi r3, %hi(__bss_end)
     180:	00c00074 	movhi	r3,1
    ori r3, r3, %lo(__bss_end)
     184:	18cad814 	ori	r3,r3,11104

    beq r2, r3, 1f
     188:	10c00326 	beq	r2,r3,198 <_start+0x30>

0:
    stw zero, (r2)
     18c:	10000015 	stw	zero,0(r2)
    addi r2, r2, 4
     190:	10800104 	addi	r2,r2,4
    bltu r2, r3, 0b
     194:	10fffd36 	bltu	r2,r3,18c <_start+0x24>
     * section aren't defined until alt_load() has been called).
     */
    mov   et, zero
#endif

    call alt_load
     198:	000d9580 	call	d958 <alt_load>

    /* Log that alt_main is about to be called. */
    ALT_LOG_PUTS(alt_log_msg_alt_main)

    /* Call the C entry point. It should never return. */
    call alt_main
     19c:	000dad00 	call	dad0 <alt_main>

000001a0 <alt_after_alt_main>:

    /* Wait in infinite loop in case alt_main does return. */
alt_after_alt_main:
    br alt_after_alt_main
     1a0:	003fff06 	br	1a0 <alt_after_alt_main>

000001a4 <put_jtag>:
 * Subroutine to send a character to the JTAG UART
********************************************************************************/
void put_jtag( volatile int * JTAG_UART_ptr, char c )
{
	int control;
	control = *(JTAG_UART_ptr + 1);			// read the JTAG_UART control register
     1a4:	20800104 	addi	r2,r4,4
     1a8:	10800017 	ldw	r2,0(r2)
	if (control & 0xFFFF0000)					// if space, then echo character, else ignore 
     1ac:	10bfffec 	andhi	r2,r2,65535
     1b0:	10000426 	beq	r2,zero,1c4 <put_jtag+0x20>
		*(JTAG_UART_ptr) = c;
     1b4:	28803fcc 	andi	r2,r5,255
     1b8:	1080201c 	xori	r2,r2,128
     1bc:	10bfe004 	addi	r2,r2,-128
     1c0:	20800015 	stw	r2,0(r4)
     1c4:	f800283a 	ret

000001c8 <main>:
 * 	2. reads character data from the JTAG UART
 * 	3. echos the character data back to the JTAG UART
********************************************************************************/
volatile int * dda_ptr = (int *) DDA_OPTIONS_BASE;
int main(void)
{
     1c8:	deffe304 	addi	sp,sp,-116
     1cc:	dfc01c15 	stw	ra,112(sp)
     1d0:	dd401b15 	stw	r21,108(sp)
     1d4:	dd001a15 	stw	r20,104(sp)
     1d8:	dcc01915 	stw	r19,100(sp)
     1dc:	dc801815 	stw	r18,96(sp)
     1e0:	dc401715 	stw	r17,92(sp)
     1e4:	dc001615 	stw	r16,88(sp)
	uint32_t dataLine;

	int data, i, n;
	int k1, k2, k13, kmid, x1, v1, x2, v2;
	char command_index = 0;
	char text_string[] = "\nInput Spring-Mass System Parameters\n> \0";
     1e8:	00c00074 	movhi	r3,1
     1ec:	18fbc304 	addi	r3,r3,-4340
     1f0:	18800017 	ldw	r2,0(r3)
     1f4:	d8800115 	stw	r2,4(sp)
     1f8:	18800117 	ldw	r2,4(r3)
     1fc:	d8800215 	stw	r2,8(sp)
     200:	18800217 	ldw	r2,8(r3)
     204:	d8800315 	stw	r2,12(sp)
     208:	18800317 	ldw	r2,12(r3)
     20c:	d8800415 	stw	r2,16(sp)
     210:	18800417 	ldw	r2,16(r3)
     214:	d8800515 	stw	r2,20(sp)
     218:	18800517 	ldw	r2,20(r3)
     21c:	d8800615 	stw	r2,24(sp)
     220:	18800617 	ldw	r2,24(r3)
     224:	d8800715 	stw	r2,28(sp)
     228:	18800717 	ldw	r2,28(r3)
     22c:	d8800815 	stw	r2,32(sp)
     230:	18800817 	ldw	r2,32(r3)
     234:	d8800915 	stw	r2,36(sp)
     238:	18800917 	ldw	r2,36(r3)
     23c:	d8800a15 	stw	r2,40(sp)
     240:	18800a03 	ldbu	r2,40(r3)
     244:	d8800b05 	stb	r2,44(sp)
	char * command_string;//[20];
	char go_string[] = "go:";
     248:	00800074 	movhi	r2,1
     24c:	10bbb904 	addi	r2,r2,-4380
     250:	10800017 	ldw	r2,0(r2)
     254:	d8800c15 	stw	r2,48(sp)
	char stop_string[] = "st:";
     258:	00800074 	movhi	r2,1
     25c:	10bbba04 	addi	r2,r2,-4376
     260:	10800017 	ldw	r2,0(r2)
     264:	d8800d15 	stw	r2,52(sp)
	char k1_string[] = "k1:";
     268:	00800074 	movhi	r2,1
     26c:	10bbbb04 	addi	r2,r2,-4372
     270:	10800017 	ldw	r2,0(r2)
     274:	d8800e15 	stw	r2,56(sp)
	char k2_string[] = "k2:";
     278:	00800074 	movhi	r2,1
     27c:	10bbbc04 	addi	r2,r2,-4368
     280:	10800017 	ldw	r2,0(r2)
     284:	d8800f15 	stw	r2,60(sp)
	char kmid_string[] = "km:";
     288:	00800074 	movhi	r2,1
     28c:	10bbbd04 	addi	r2,r2,-4364
     290:	10800017 	ldw	r2,0(r2)
     294:	d8801015 	stw	r2,64(sp)
	char k13_string[] = "k3:";
     298:	00800074 	movhi	r2,1
     29c:	10bbbe04 	addi	r2,r2,-4360
     2a0:	10800017 	ldw	r2,0(r2)
     2a4:	d8801115 	stw	r2,68(sp)
	char x1_string[] = "x1:";
     2a8:	00800074 	movhi	r2,1
     2ac:	10bbbf04 	addi	r2,r2,-4356
     2b0:	10800017 	ldw	r2,0(r2)
     2b4:	d8801215 	stw	r2,72(sp)
	char v1_string[] = "v1:";
     2b8:	00800074 	movhi	r2,1
     2bc:	10bbc004 	addi	r2,r2,-4352
     2c0:	10800017 	ldw	r2,0(r2)
     2c4:	d8801315 	stw	r2,76(sp)
	char x2_string[] = "x2:";
     2c8:	00800074 	movhi	r2,1
     2cc:	10bbc104 	addi	r2,r2,-4348
     2d0:	10800017 	ldw	r2,0(r2)
     2d4:	d8801415 	stw	r2,80(sp)
	char v2_string[] = "v2:";
     2d8:	00800074 	movhi	r2,1
     2dc:	10bbc204 	addi	r2,r2,-4344
     2e0:	10800017 	ldw	r2,0(r2)
     2e4:	d8801515 	stw	r2,84(sp)
  	char* pEnd;

	command_string = malloc( sizeof(char)*20);
     2e8:	01000504 	movi	r4,20
     2ec:	0000b5c0 	call	b5c <malloc>
     2f0:	1023883a 	mov	r17,r2
	/* print a text string */
	for (i = 0; text_string[i] != 0; ++i)
     2f4:	d9400103 	ldbu	r5,4(sp)
     2f8:	28803fcc 	andi	r2,r5,255
     2fc:	1080201c 	xori	r2,r2,128
     300:	10bfe004 	addi	r2,r2,-128
     304:	10000d26 	beq	r2,zero,33c <main+0x174>
     308:	dc000144 	addi	r16,sp,5
		put_jtag (JTAG_UART_ptr, text_string[i]);
     30c:	01040034 	movhi	r4,4096
     310:	21040004 	addi	r4,r4,4096
     314:	29403fcc 	andi	r5,r5,255
     318:	2940201c 	xori	r5,r5,128
     31c:	297fe004 	addi	r5,r5,-128
     320:	00001a40 	call	1a4 <put_jtag>
	char v2_string[] = "v2:";
  	char* pEnd;

	command_string = malloc( sizeof(char)*20);
	/* print a text string */
	for (i = 0; text_string[i] != 0; ++i)
     324:	81400003 	ldbu	r5,0(r16)
     328:	84000044 	addi	r16,r16,1
     32c:	28803fcc 	andi	r2,r5,255
     330:	1080201c 	xori	r2,r2,128
     334:	10bfe004 	addi	r2,r2,-128
     338:	103ff41e 	bne	r2,zero,30c <main+0x144>
     33c:	0029883a 	mov	r20,zero
     340:	0021883a 	mov	r16,zero
     344:	054000c4 	movi	r21,3
		put_jtag (JTAG_UART_ptr, text_string[i]);
	/* read and echo characters */
	while(1)
	{
		data = *(JTAG_UART_ptr);		 		// read the JTAG_UART data register
     348:	00840034 	movhi	r2,4096
     34c:	10840004 	addi	r2,r2,4096
     350:	11400017 	ldw	r5,0(r2)
		if (data & 0x00008000)					// check RVALID to see if there is new data
     354:	28a0000c 	andi	r2,r5,32768
     358:	103ffb26 	beq	r2,zero,348 <main+0x180>
		{
			data = data & 0x000000FF;			// the data is in the least significant byte
     35c:	2cc03fcc 	andi	r19,r5,255
			/* echo the character */

			// Add the data to the current command string if not return
			if ((data != '\n') && (data != '\r') && (command_index <19))
     360:	00800284 	movi	r2,10
     364:	98800b26 	beq	r19,r2,394 <main+0x1cc>
     368:	00800344 	movi	r2,13
     36c:	98800926 	beq	r19,r2,394 <main+0x1cc>
     370:	80c03fcc 	andi	r3,r16,255
     374:	18c0201c 	xori	r3,r3,128
     378:	18ffe004 	addi	r3,r3,-128
     37c:	00800484 	movi	r2,18
     380:	10c00416 	blt	r2,r3,394 <main+0x1cc>
			{
				command_string[command_index] = data;
     384:	88c5883a 	add	r2,r17,r3
     388:	14c00005 	stb	r19,0(r2)
				command_index++;
     38c:	84000044 	addi	r16,r16,1
     390:	0000bd06 	br	688 <main+0x4c0>
			}
			// clear the command string if there is a return
			else
			{
				command_string[command_index] = '\0';
     394:	80803fcc 	andi	r2,r16,255
     398:	1080201c 	xori	r2,r2,128
     39c:	10bfe004 	addi	r2,r2,-128
     3a0:	8885883a 	add	r2,r17,r2
     3a4:	10000005 	stb	zero,0(r2)
				// check for a match on any of the special strings in the command string
				if (strstr(command_string,k1_string) == command_string)
     3a8:	8809883a 	mov	r4,r17
     3ac:	d9400e04 	addi	r5,sp,56
     3b0:	00016180 	call	1618 <strstr>
     3b4:	88800e1e 	bne	r17,r2,3f0 <main+0x228>
				{

					printf("\nfound k1 match\n");
     3b8:	01000074 	movhi	r4,1
     3bc:	213b9304 	addi	r4,r4,-4532
     3c0:	00013ec0 	call	13ec <puts>
					tempFloat = atof(&command_string[3]); //strtod(&command_string[3],&pEnd);
     3c4:	890000c4 	addi	r4,r17,3
     3c8:	0000b400 	call	b40 <atof>
     3cc:	1009883a 	mov	r4,r2
     3d0:	180b883a 	mov	r5,r3
     3d4:	00007400 	call	740 <__truncdfsf2>
     3d8:	d8800015 	stw	r2,0(sp)
					printf("completed strtod call\n");
     3dc:	01000074 	movhi	r4,1
     3e0:	213b9704 	addi	r4,r4,-4516
     3e4:	00013ec0 	call	13ec <puts>
     3e8:	05000044 	movi	r20,1
     3ec:	00006606 	br	588 <main+0x3c0>
					//sscanf(command_string,"%f", &tempFloat);
					select_line = 0x1;

				}
				
				else if (strstr(command_string,k2_string) == command_string)
     3f0:	8809883a 	mov	r4,r17
     3f4:	d9400f04 	addi	r5,sp,60
     3f8:	00016180 	call	1618 <strstr>
     3fc:	8880091e 	bne	r17,r2,424 <main+0x25c>
				{
					tempFloat = strtod(command_string + 3,NULL);
     400:	890000c4 	addi	r4,r17,3
     404:	000b883a 	mov	r5,zero
     408:	00033b00 	call	33b0 <strtod>
     40c:	1009883a 	mov	r4,r2
     410:	180b883a 	mov	r5,r3
     414:	00007400 	call	740 <__truncdfsf2>
     418:	d8800015 	stw	r2,0(sp)
     41c:	05000084 	movi	r20,2
     420:	00005906 	br	588 <main+0x3c0>
					select_line = 0x2;
				}
				else if (strstr(command_string,k13_string) == command_string)
     424:	8809883a 	mov	r4,r17
     428:	d9401104 	addi	r5,sp,68
     42c:	00016180 	call	1618 <strstr>
     430:	8880091e 	bne	r17,r2,458 <main+0x290>
				{
					tempFloat = strtod(command_string + 3,NULL);
     434:	8d49883a 	add	r4,r17,r21
     438:	000b883a 	mov	r5,zero
     43c:	00033b00 	call	33b0 <strtod>
     440:	1009883a 	mov	r4,r2
     444:	180b883a 	mov	r5,r3
     448:	00007400 	call	740 <__truncdfsf2>
     44c:	d8800015 	stw	r2,0(sp)
     450:	a829883a 	mov	r20,r21
     454:	00004c06 	br	588 <main+0x3c0>
					select_line = 0x3;
				}

				else if (strstr(command_string,kmid_string) == command_string)
     458:	8809883a 	mov	r4,r17
     45c:	d9401004 	addi	r5,sp,64
     460:	00016180 	call	1618 <strstr>
     464:	8880091e 	bne	r17,r2,48c <main+0x2c4>
				{
					tempFloat = strtod(command_string + 3,NULL);
     468:	890000c4 	addi	r4,r17,3
     46c:	000b883a 	mov	r5,zero
     470:	00033b00 	call	33b0 <strtod>
     474:	1009883a 	mov	r4,r2
     478:	180b883a 	mov	r5,r3
     47c:	00007400 	call	740 <__truncdfsf2>
     480:	d8800015 	stw	r2,0(sp)
     484:	05000104 	movi	r20,4
     488:	00003f06 	br	588 <main+0x3c0>
					select_line = 0x4;

				}
				else if (strstr(command_string,x1_string) == command_string)
     48c:	8809883a 	mov	r4,r17
     490:	d9401204 	addi	r5,sp,72
     494:	00016180 	call	1618 <strstr>
     498:	8880091e 	bne	r17,r2,4c0 <main+0x2f8>
				{
					tempFloat = strtod(command_string + 3,NULL);
     49c:	890000c4 	addi	r4,r17,3
     4a0:	000b883a 	mov	r5,zero
     4a4:	00033b00 	call	33b0 <strtod>
     4a8:	1009883a 	mov	r4,r2
     4ac:	180b883a 	mov	r5,r3
     4b0:	00007400 	call	740 <__truncdfsf2>
     4b4:	d8800015 	stw	r2,0(sp)
     4b8:	05000144 	movi	r20,5
     4bc:	00003206 	br	588 <main+0x3c0>
					select_line = 0x5;
				}
				else if (strstr(command_string,v1_string) == command_string)
     4c0:	8809883a 	mov	r4,r17
     4c4:	d9401304 	addi	r5,sp,76
     4c8:	00016180 	call	1618 <strstr>
     4cc:	8880091e 	bne	r17,r2,4f4 <main+0x32c>
				{
					tempFloat = strtod(command_string + 3,NULL);
     4d0:	890000c4 	addi	r4,r17,3
     4d4:	000b883a 	mov	r5,zero
     4d8:	00033b00 	call	33b0 <strtod>
     4dc:	1009883a 	mov	r4,r2
     4e0:	180b883a 	mov	r5,r3
     4e4:	00007400 	call	740 <__truncdfsf2>
     4e8:	d8800015 	stw	r2,0(sp)
     4ec:	05000184 	movi	r20,6
     4f0:	00002506 	br	588 <main+0x3c0>
				select_line = 0x6;
				}
				else if (strstr(command_string,x2_string) == command_string)
     4f4:	8809883a 	mov	r4,r17
     4f8:	d9401404 	addi	r5,sp,80
     4fc:	00016180 	call	1618 <strstr>
     500:	8880091e 	bne	r17,r2,528 <main+0x360>
				{
					tempFloat = strtod(command_string + 3,NULL);
     504:	890000c4 	addi	r4,r17,3
     508:	000b883a 	mov	r5,zero
     50c:	00033b00 	call	33b0 <strtod>
     510:	1009883a 	mov	r4,r2
     514:	180b883a 	mov	r5,r3
     518:	00007400 	call	740 <__truncdfsf2>
     51c:	d8800015 	stw	r2,0(sp)
     520:	050001c4 	movi	r20,7
     524:	00001806 	br	588 <main+0x3c0>
					select_line = 0x7;
				}
				else if (strstr(command_string,v2_string) == command_string)
     528:	8809883a 	mov	r4,r17
     52c:	d9401504 	addi	r5,sp,84
     530:	00016180 	call	1618 <strstr>
     534:	8880091e 	bne	r17,r2,55c <main+0x394>
				{
					tempFloat = strtod(command_string + 3,NULL);
     538:	890000c4 	addi	r4,r17,3
     53c:	000b883a 	mov	r5,zero
     540:	00033b00 	call	33b0 <strtod>
     544:	1009883a 	mov	r4,r2
     548:	180b883a 	mov	r5,r3
     54c:	00007400 	call	740 <__truncdfsf2>
     550:	d8800015 	stw	r2,0(sp)
     554:	05000204 	movi	r20,8
     558:	00000b06 	br	588 <main+0x3c0>
					select_line = 0x8;
				}
				else if (strstr(command_string,go_string) == command_string)
     55c:	8809883a 	mov	r4,r17
     560:	d9400c04 	addi	r5,sp,48
     564:	00016180 	call	1618 <strstr>
     568:	8880021e 	bne	r17,r2,574 <main+0x3ac>
     56c:	05000244 	movi	r20,9
     570:	00000506 	br	588 <main+0x3c0>
				{
					select_line = 0x9;
				}
				else if (strstr(command_string,stop_string) == command_string)
     574:	8809883a 	mov	r4,r17
     578:	d9400d04 	addi	r5,sp,52
     57c:	00016180 	call	1618 <strstr>
     580:	8880011e 	bne	r17,r2,588 <main+0x3c0>
     584:	05000284 	movi	r20,10
				}
				else
				{
					//select_line = 0x0;
				}
				printf("about to convert to fixed\n");
     588:	01000074 	movhi	r4,1
     58c:	213b9d04 	addi	r4,r4,-4492
     590:	00013ec0 	call	13ec <puts>
				dataLine = FLOAT2_DDA_FIXED(tempFloat);
     594:	d8800017 	ldw	r2,0(sp)
     598:	0111e034 	movhi	r4,18304
     59c:	1109ff32 	custom	252,r4,r2,r4
     5a0:	00006ac0 	call	6ac <__fixsfsi>
     5a4:	00c00134 	movhi	r3,4
     5a8:	18ffffc4 	addi	r3,r3,-1
     5ac:	10e4703a 	and	r18,r2,r3
				// after reading a value, zero the index and clear the command string
				//printf("tempFloat = %f\ndataLine = ",tempFloat);
				*(dda_ptr)= (dataLine << 4) | select_line;
     5b0:	9004913a 	slli	r2,r18,4
     5b4:	a0c03fcc 	andi	r3,r20,255
     5b8:	18c0201c 	xori	r3,r3,128
     5bc:	18ffe004 	addi	r3,r3,-128
     5c0:	10c4b03a 	or	r2,r2,r3
     5c4:	d0e00017 	ldw	r3,-32768(gp)
     5c8:	18800015 	stw	r2,0(r3)
				command_index = 0;
				printf("converted to fixed and sent to ports\ndataLine = ");
     5cc:	01000074 	movhi	r4,1
     5d0:	213ba404 	addi	r4,r4,-4464
     5d4:	00012b00 	call	12b0 <printf>
     5d8:	04000444 	movi	r16,17

				// print out the value sent to ports on JTAG
				for (n=17;n>=0;n--){
					if (dataLine & (1<<n))
     5dc:	00800044 	movi	r2,1
     5e0:	1404983a 	sll	r2,r2,r16
     5e4:	9084703a 	and	r2,r18,r2
     5e8:	10000326 	beq	r2,zero,5f8 <main+0x430>
					{
						printf("1");
     5ec:	01000c44 	movi	r4,49
     5f0:	00013280 	call	1328 <putchar>
     5f4:	00000206 	br	600 <main+0x438>
					}
					else
					{
						printf("0");
     5f8:	01000c04 	movi	r4,48
     5fc:	00013280 	call	1328 <putchar>
					}
					if (n==16) {printf("_");}
     600:	00800404 	movi	r2,16
     604:	8080031e 	bne	r16,r2,614 <main+0x44c>
     608:	010017c4 	movi	r4,95
     60c:	00013280 	call	1328 <putchar>
     610:	00001006 	br	654 <main+0x48c>
					if (n==12) {printf(" ");}
     614:	00800304 	movi	r2,12
     618:	8080041e 	bne	r16,r2,62c <main+0x464>
     61c:	01000804 	movi	r4,32
     620:	00013280 	call	1328 <putchar>
				*(dda_ptr)= (dataLine << 4) | select_line;
				command_index = 0;
				printf("converted to fixed and sent to ports\ndataLine = ");

				// print out the value sent to ports on JTAG
				for (n=17;n>=0;n--){
     624:	843fffc4 	addi	r16,r16,-1
     628:	003fec06 	br	5dc <main+0x414>
					{
						printf("0");
					}
					if (n==16) {printf("_");}
					if (n==12) {printf(" ");}
					if (n==8) {printf(" ");}
     62c:	00800204 	movi	r2,8
     630:	8080031e 	bne	r16,r2,640 <main+0x478>
     634:	01000804 	movi	r4,32
     638:	00013280 	call	1328 <putchar>
     63c:	00001906 	br	6a4 <main+0x4dc>
					if (n==4) {printf(" ");}
     640:	00800104 	movi	r2,4
     644:	8080031e 	bne	r16,r2,654 <main+0x48c>
     648:	01000804 	movi	r4,32
     64c:	00013280 	call	1328 <putchar>
     650:	00001406 	br	6a4 <main+0x4dc>
				*(dda_ptr)= (dataLine << 4) | select_line;
				command_index = 0;
				printf("converted to fixed and sent to ports\ndataLine = ");

				// print out the value sent to ports on JTAG
				for (n=17;n>=0;n--){
     654:	843fffc4 	addi	r16,r16,-1
     658:	803fe00e 	bge	r16,zero,5dc <main+0x414>
					if (n==16) {printf("_");}
					if (n==12) {printf(" ");}
					if (n==8) {printf(" ");}
					if (n==4) {printf(" ");}
				}
				printf("\nPort output displayed above\n");
     65c:	01000074 	movhi	r4,1
     660:	213bb104 	addi	r4,r4,-4412
     664:	00013ec0 	call	13ec <puts>
     668:	0007883a 	mov	r3,zero
     66c:	01400044 	movi	r5,1
     670:	01000504 	movi	r4,20
				
				// zero the command string
				for (n=0;n<20;n++){
					command_string[n] = '\0';
     674:	88c5883a 	add	r2,r17,r3
     678:	10000005 	stb	zero,0(r2)
					if (n==4) {printf(" ");}
				}
				printf("\nPort output displayed above\n");
				
				// zero the command string
				for (n=0;n<20;n++){
     67c:	1947883a 	add	r3,r3,r5
     680:	193ffc1e 	bne	r3,r4,674 <main+0x4ac>
     684:	0021883a 	mov	r16,zero
					command_string[n] = '\0';
				}
			}

			put_jtag (JTAG_UART_ptr, (char) data & 0xFF );
     688:	01040034 	movhi	r4,4096
     68c:	21040004 	addi	r4,r4,4096
     690:	99403fcc 	andi	r5,r19,255
     694:	2940201c 	xori	r5,r5,128
     698:	297fe004 	addi	r5,r5,-128
     69c:	00001a40 	call	1a4 <put_jtag>
     6a0:	003f2906 	br	348 <main+0x180>
				*(dda_ptr)= (dataLine << 4) | select_line;
				command_index = 0;
				printf("converted to fixed and sent to ports\ndataLine = ");

				// print out the value sent to ports on JTAG
				for (n=17;n>=0;n--){
     6a4:	843fffc4 	addi	r16,r16,-1
     6a8:	003fcc06 	br	5dc <main+0x414>

000006ac <__fixsfsi>:
     6ac:	defffa04 	addi	sp,sp,-24
     6b0:	d9000015 	stw	r4,0(sp)
     6b4:	d9400104 	addi	r5,sp,4
     6b8:	d809883a 	mov	r4,sp
     6bc:	dfc00515 	stw	ra,20(sp)
     6c0:	00007b40 	call	7b4 <__unpack_f>
     6c4:	d8c00117 	ldw	r3,4(sp)
     6c8:	00800084 	movi	r2,2
     6cc:	1880041e 	bne	r3,r2,6e0 <__fixsfsi+0x34>
     6d0:	0005883a 	mov	r2,zero
     6d4:	dfc00517 	ldw	ra,20(sp)
     6d8:	dec00604 	addi	sp,sp,24
     6dc:	f800283a 	ret
     6e0:	00800044 	movi	r2,1
     6e4:	10fffa2e 	bgeu	r2,r3,6d0 <__fixsfsi+0x24>
     6e8:	00800104 	movi	r2,4
     6ec:	18800426 	beq	r3,r2,700 <__fixsfsi+0x54>
     6f0:	d8800317 	ldw	r2,12(sp)
     6f4:	103ff616 	blt	r2,zero,6d0 <__fixsfsi+0x24>
     6f8:	00c00784 	movi	r3,30
     6fc:	1880070e 	bge	r3,r2,71c <__fixsfsi+0x70>
     700:	d8800217 	ldw	r2,8(sp)
     704:	10000c1e 	bne	r2,zero,738 <__fixsfsi+0x8c>
     708:	00a00034 	movhi	r2,32768
     70c:	10bfffc4 	addi	r2,r2,-1
     710:	dfc00517 	ldw	ra,20(sp)
     714:	dec00604 	addi	sp,sp,24
     718:	f800283a 	ret
     71c:	1885c83a 	sub	r2,r3,r2
     720:	d9000217 	ldw	r4,8(sp)
     724:	d8c00417 	ldw	r3,16(sp)
     728:	1884d83a 	srl	r2,r3,r2
     72c:	203fe926 	beq	r4,zero,6d4 <__fixsfsi+0x28>
     730:	0085c83a 	sub	r2,zero,r2
     734:	003fe706 	br	6d4 <__fixsfsi+0x28>
     738:	00a00034 	movhi	r2,32768
     73c:	003fe506 	br	6d4 <__fixsfsi+0x28>

00000740 <__truncdfsf2>:
     740:	defff804 	addi	sp,sp,-32
     744:	2005883a 	mov	r2,r4
     748:	2807883a 	mov	r3,r5
     74c:	d809883a 	mov	r4,sp
     750:	d9400204 	addi	r5,sp,8
     754:	d8c00115 	stw	r3,4(sp)
     758:	d8800015 	stw	r2,0(sp)
     75c:	dfc00715 	stw	ra,28(sp)
     760:	00008a80 	call	8a8 <__unpack_d>
     764:	d9c00517 	ldw	r7,20(sp)
     768:	da000617 	ldw	r8,24(sp)
     76c:	02d00034 	movhi	r11,16384
     770:	5affffc4 	addi	r11,r11,-1
     774:	3812d7ba 	srli	r9,r7,30
     778:	401a90ba 	slli	r13,r8,2
     77c:	3ac4703a 	and	r2,r7,r11
     780:	0007883a 	mov	r3,zero
     784:	6a52b03a 	or	r9,r13,r9
     788:	10c4b03a 	or	r2,r2,r3
     78c:	d9000217 	ldw	r4,8(sp)
     790:	d9400317 	ldw	r5,12(sp)
     794:	d9800417 	ldw	r6,16(sp)
     798:	480f883a 	mov	r7,r9
     79c:	10000126 	beq	r2,zero,7a4 <__truncdfsf2+0x64>
     7a0:	49c00054 	ori	r7,r9,1
     7a4:	000087c0 	call	87c <__make_fp>
     7a8:	dfc00717 	ldw	ra,28(sp)
     7ac:	dec00804 	addi	sp,sp,32
     7b0:	f800283a 	ret

000007b4 <__unpack_f>:
     7b4:	21800017 	ldw	r6,0(r4)
     7b8:	00c02034 	movhi	r3,128
     7bc:	18ffffc4 	addi	r3,r3,-1
     7c0:	3004d5fa 	srli	r2,r6,23
     7c4:	3008d7fa 	srli	r4,r6,31
     7c8:	30ce703a 	and	r7,r6,r3
     7cc:	10c03fcc 	andi	r3,r2,255
     7d0:	29000115 	stw	r4,4(r5)
     7d4:	1800131e 	bne	r3,zero,824 <__unpack_f+0x70>
     7d8:	38000f26 	beq	r7,zero,818 <__unpack_f+0x64>
     7dc:	380691fa 	slli	r3,r7,7
     7e0:	01bfe084 	movi	r6,-126
     7e4:	008000c4 	movi	r2,3
     7e8:	01100034 	movhi	r4,16384
     7ec:	213fffc4 	addi	r4,r4,-1
     7f0:	28800015 	stw	r2,0(r5)
     7f4:	29800215 	stw	r6,8(r5)
     7f8:	20c00536 	bltu	r4,r3,810 <__unpack_f+0x5c>
     7fc:	3005883a 	mov	r2,r6
     800:	18c7883a 	add	r3,r3,r3
     804:	10bfffc4 	addi	r2,r2,-1
     808:	20fffd2e 	bgeu	r4,r3,800 <__unpack_f+0x4c>
     80c:	28800215 	stw	r2,8(r5)
     810:	28c00315 	stw	r3,12(r5)
     814:	f800283a 	ret
     818:	00800084 	movi	r2,2
     81c:	28800015 	stw	r2,0(r5)
     820:	f800283a 	ret
     824:	00803fc4 	movi	r2,255
     828:	18800826 	beq	r3,r2,84c <__unpack_f+0x98>
     82c:	380491fa 	slli	r2,r7,7
     830:	18ffe044 	addi	r3,r3,-127
     834:	28c00215 	stw	r3,8(r5)
     838:	10900034 	orhi	r2,r2,16384
     83c:	28800315 	stw	r2,12(r5)
     840:	008000c4 	movi	r2,3
     844:	28800015 	stw	r2,0(r5)
     848:	f800283a 	ret
     84c:	3800031e 	bne	r7,zero,85c <__unpack_f+0xa8>
     850:	00800104 	movi	r2,4
     854:	28800015 	stw	r2,0(r5)
     858:	f800283a 	ret
     85c:	3080042c 	andhi	r2,r6,16
     860:	10000426 	beq	r2,zero,874 <__unpack_f+0xc0>
     864:	00800044 	movi	r2,1
     868:	28800015 	stw	r2,0(r5)
     86c:	29c00315 	stw	r7,12(r5)
     870:	f800283a 	ret
     874:	28000015 	stw	zero,0(r5)
     878:	003ffc06 	br	86c <__unpack_f+0xb8>

0000087c <__make_fp>:
     87c:	defffb04 	addi	sp,sp,-20
     880:	d9000015 	stw	r4,0(sp)
     884:	d809883a 	mov	r4,sp
     888:	dfc00415 	stw	ra,16(sp)
     88c:	d9400115 	stw	r5,4(sp)
     890:	d9800215 	stw	r6,8(sp)
     894:	d9c00315 	stw	r7,12(sp)
     898:	00009e00 	call	9e0 <__pack_f>
     89c:	dfc00417 	ldw	ra,16(sp)
     8a0:	dec00504 	addi	sp,sp,20
     8a4:	f800283a 	ret

000008a8 <__unpack_d>:
     8a8:	20c00117 	ldw	r3,4(r4)
     8ac:	22400017 	ldw	r9,0(r4)
     8b0:	00800434 	movhi	r2,16
     8b4:	10bfffc4 	addi	r2,r2,-1
     8b8:	1808d53a 	srli	r4,r3,20
     8bc:	180cd7fa 	srli	r6,r3,31
     8c0:	1894703a 	and	r10,r3,r2
     8c4:	2201ffcc 	andi	r8,r4,2047
     8c8:	281b883a 	mov	r13,r5
     8cc:	4817883a 	mov	r11,r9
     8d0:	29800115 	stw	r6,4(r5)
     8d4:	5019883a 	mov	r12,r10
     8d8:	40001e1e 	bne	r8,zero,954 <__unpack_d+0xac>
     8dc:	4a84b03a 	or	r2,r9,r10
     8e0:	10001926 	beq	r2,zero,948 <__unpack_d+0xa0>
     8e4:	4804d63a 	srli	r2,r9,24
     8e8:	500c923a 	slli	r6,r10,8
     8ec:	013f0084 	movi	r4,-1022
     8f0:	00c40034 	movhi	r3,4096
     8f4:	18ffffc4 	addi	r3,r3,-1
     8f8:	118cb03a 	or	r6,r2,r6
     8fc:	008000c4 	movi	r2,3
     900:	480a923a 	slli	r5,r9,8
     904:	68800015 	stw	r2,0(r13)
     908:	69000215 	stw	r4,8(r13)
     90c:	19800b36 	bltu	r3,r6,93c <__unpack_d+0x94>
     910:	200f883a 	mov	r7,r4
     914:	1811883a 	mov	r8,r3
     918:	2945883a 	add	r2,r5,r5
     91c:	1149803a 	cmpltu	r4,r2,r5
     920:	3187883a 	add	r3,r6,r6
     924:	20c9883a 	add	r4,r4,r3
     928:	100b883a 	mov	r5,r2
     92c:	200d883a 	mov	r6,r4
     930:	39ffffc4 	addi	r7,r7,-1
     934:	413ff82e 	bgeu	r8,r4,918 <__unpack_d+0x70>
     938:	69c00215 	stw	r7,8(r13)
     93c:	69800415 	stw	r6,16(r13)
     940:	69400315 	stw	r5,12(r13)
     944:	f800283a 	ret
     948:	00800084 	movi	r2,2
     94c:	28800015 	stw	r2,0(r5)
     950:	f800283a 	ret
     954:	0081ffc4 	movi	r2,2047
     958:	40800f26 	beq	r8,r2,998 <__unpack_d+0xf0>
     95c:	480cd63a 	srli	r6,r9,24
     960:	5006923a 	slli	r3,r10,8
     964:	4804923a 	slli	r2,r9,8
     968:	0009883a 	mov	r4,zero
     96c:	30c6b03a 	or	r3,r6,r3
     970:	01440034 	movhi	r5,4096
     974:	110cb03a 	or	r6,r2,r4
     978:	423f0044 	addi	r8,r8,-1023
     97c:	194eb03a 	or	r7,r3,r5
     980:	008000c4 	movi	r2,3
     984:	69c00415 	stw	r7,16(r13)
     988:	6a000215 	stw	r8,8(r13)
     98c:	68800015 	stw	r2,0(r13)
     990:	69800315 	stw	r6,12(r13)
     994:	f800283a 	ret
     998:	4a84b03a 	or	r2,r9,r10
     99c:	1000031e 	bne	r2,zero,9ac <__unpack_d+0x104>
     9a0:	00800104 	movi	r2,4
     9a4:	28800015 	stw	r2,0(r5)
     9a8:	f800283a 	ret
     9ac:	0009883a 	mov	r4,zero
     9b0:	01400234 	movhi	r5,8
     9b4:	4904703a 	and	r2,r9,r4
     9b8:	5146703a 	and	r3,r10,r5
     9bc:	10c4b03a 	or	r2,r2,r3
     9c0:	10000526 	beq	r2,zero,9d8 <__unpack_d+0x130>
     9c4:	00800044 	movi	r2,1
     9c8:	68800015 	stw	r2,0(r13)
     9cc:	6b000415 	stw	r12,16(r13)
     9d0:	6ac00315 	stw	r11,12(r13)
     9d4:	f800283a 	ret
     9d8:	68000015 	stw	zero,0(r13)
     9dc:	003ffb06 	br	9cc <__unpack_d+0x124>

000009e0 <__pack_f>:
     9e0:	20c00017 	ldw	r3,0(r4)
     9e4:	01c00044 	movi	r7,1
     9e8:	21800317 	ldw	r6,12(r4)
     9ec:	21400117 	ldw	r5,4(r4)
     9f0:	38c02d2e 	bgeu	r7,r3,aa8 <__pack_f+0xc8>
     9f4:	00800104 	movi	r2,4
     9f8:	18802826 	beq	r3,r2,a9c <__pack_f+0xbc>
     9fc:	00800084 	movi	r2,2
     a00:	18800126 	beq	r3,r2,a08 <__pack_f+0x28>
     a04:	3000101e 	bne	r6,zero,a48 <__pack_f+0x68>
     a08:	000d883a 	mov	r6,zero
     a0c:	0007883a 	mov	r3,zero
     a10:	19003fcc 	andi	r4,r3,255
     a14:	200895fa 	slli	r4,r4,23
     a18:	00c02034 	movhi	r3,128
     a1c:	18ffffc4 	addi	r3,r3,-1
     a20:	30c6703a 	and	r3,r6,r3
     a24:	10a0002c 	andhi	r2,r2,32768
     a28:	10c4b03a 	or	r2,r2,r3
     a2c:	280a97fa 	slli	r5,r5,31
     a30:	1104b03a 	or	r2,r2,r4
     a34:	00e00034 	movhi	r3,32768
     a38:	18ffffc4 	addi	r3,r3,-1
     a3c:	10c4703a 	and	r2,r2,r3
     a40:	1144b03a 	or	r2,r2,r5
     a44:	f800283a 	ret
     a48:	21000217 	ldw	r4,8(r4)
     a4c:	00bfe084 	movi	r2,-126
     a50:	20801b16 	blt	r4,r2,ac0 <__pack_f+0xe0>
     a54:	00801fc4 	movi	r2,127
     a58:	11001016 	blt	r2,r4,a9c <__pack_f+0xbc>
     a5c:	308e703a 	and	r7,r6,r2
     a60:	2087883a 	add	r3,r4,r2
     a64:	00801004 	movi	r2,64
     a68:	38800526 	beq	r7,r2,a80 <__pack_f+0xa0>
     a6c:	31800fc4 	addi	r6,r6,63
     a70:	30000716 	blt	r6,zero,a90 <__pack_f+0xb0>
     a74:	300490ba 	slli	r2,r6,2
     a78:	100cd27a 	srli	r6,r2,9
     a7c:	003fe406 	br	a10 <__pack_f+0x30>
     a80:	3080200c 	andi	r2,r6,128
     a84:	103ffa26 	beq	r2,zero,a70 <__pack_f+0x90>
     a88:	31cd883a 	add	r6,r6,r7
     a8c:	003ff806 	br	a70 <__pack_f+0x90>
     a90:	300cd07a 	srli	r6,r6,1
     a94:	18c00044 	addi	r3,r3,1
     a98:	003ff606 	br	a74 <__pack_f+0x94>
     a9c:	000d883a 	mov	r6,zero
     aa0:	00ffffc4 	movi	r3,-1
     aa4:	003fda06 	br	a10 <__pack_f+0x30>
     aa8:	31800434 	orhi	r6,r6,16
     aac:	00802034 	movhi	r2,128
     ab0:	10bfffc4 	addi	r2,r2,-1
     ab4:	308c703a 	and	r6,r6,r2
     ab8:	00ffffc4 	movi	r3,-1
     abc:	003fd406 	br	a10 <__pack_f+0x30>
     ac0:	1109c83a 	sub	r4,r2,r4
     ac4:	00800644 	movi	r2,25
     ac8:	11001216 	blt	r2,r4,b14 <__pack_f+0x134>
     acc:	3904983a 	sll	r2,r7,r4
     ad0:	3106d83a 	srl	r3,r6,r4
     ad4:	10bfffc4 	addi	r2,r2,-1
     ad8:	3084703a 	and	r2,r6,r2
     adc:	1004c03a 	cmpne	r2,r2,zero
     ae0:	1886b03a 	or	r3,r3,r2
     ae4:	19001fcc 	andi	r4,r3,127
     ae8:	00801004 	movi	r2,64
     aec:	20800c26 	beq	r4,r2,b20 <__pack_f+0x140>
     af0:	18c00fc4 	addi	r3,r3,63
     af4:	00900034 	movhi	r2,16384
     af8:	10bfffc4 	addi	r2,r2,-1
     afc:	180cd1fa 	srli	r6,r3,7
     b00:	10c7803a 	cmpltu	r3,r2,r3
     b04:	00802034 	movhi	r2,128
     b08:	10bfffc4 	addi	r2,r2,-1
     b0c:	308c703a 	and	r6,r6,r2
     b10:	003fbf06 	br	a10 <__pack_f+0x30>
     b14:	0007883a 	mov	r3,zero
     b18:	000d883a 	mov	r6,zero
     b1c:	003ff906 	br	b04 <__pack_f+0x124>
     b20:	1880200c 	andi	r2,r3,128
     b24:	10000126 	beq	r2,zero,b2c <__pack_f+0x14c>
     b28:	1907883a 	add	r3,r3,r4
     b2c:	180cd1fa 	srli	r6,r3,7
     b30:	00900034 	movhi	r2,16384
     b34:	10bfffc4 	addi	r2,r2,-1
     b38:	10c7803a 	cmpltu	r3,r2,r3
     b3c:	003ff106 	br	b04 <__pack_f+0x124>

00000b40 <atof>:
     b40:	000b883a 	mov	r5,zero
     b44:	00033b01 	jmpi	33b0 <strtod>

00000b48 <free>:
     b48:	00800074 	movhi	r2,1
     b4c:	10837004 	addi	r2,r2,3520
     b50:	200b883a 	mov	r5,r4
     b54:	11000017 	ldw	r4,0(r2)
     b58:	00072901 	jmpi	7290 <_free_r>

00000b5c <malloc>:
     b5c:	00800074 	movhi	r2,1
     b60:	10837004 	addi	r2,r2,3520
     b64:	200b883a 	mov	r5,r4
     b68:	11000017 	ldw	r4,0(r2)
     b6c:	0000b701 	jmpi	b70 <_malloc_r>

00000b70 <_malloc_r>:
     b70:	defff604 	addi	sp,sp,-40
     b74:	28c002c4 	addi	r3,r5,11
     b78:	00800584 	movi	r2,22
     b7c:	dc800215 	stw	r18,8(sp)
     b80:	dfc00915 	stw	ra,36(sp)
     b84:	df000815 	stw	fp,32(sp)
     b88:	ddc00715 	stw	r23,28(sp)
     b8c:	dd800615 	stw	r22,24(sp)
     b90:	dd400515 	stw	r21,20(sp)
     b94:	dd000415 	stw	r20,16(sp)
     b98:	dcc00315 	stw	r19,12(sp)
     b9c:	dc400115 	stw	r17,4(sp)
     ba0:	dc000015 	stw	r16,0(sp)
     ba4:	2025883a 	mov	r18,r4
     ba8:	10c01236 	bltu	r2,r3,bf4 <_malloc_r+0x84>
     bac:	04400404 	movi	r17,16
     bb0:	8940142e 	bgeu	r17,r5,c04 <_malloc_r+0x94>
     bb4:	00800304 	movi	r2,12
     bb8:	0007883a 	mov	r3,zero
     bbc:	90800015 	stw	r2,0(r18)
     bc0:	1805883a 	mov	r2,r3
     bc4:	dfc00917 	ldw	ra,36(sp)
     bc8:	df000817 	ldw	fp,32(sp)
     bcc:	ddc00717 	ldw	r23,28(sp)
     bd0:	dd800617 	ldw	r22,24(sp)
     bd4:	dd400517 	ldw	r21,20(sp)
     bd8:	dd000417 	ldw	r20,16(sp)
     bdc:	dcc00317 	ldw	r19,12(sp)
     be0:	dc800217 	ldw	r18,8(sp)
     be4:	dc400117 	ldw	r17,4(sp)
     be8:	dc000017 	ldw	r16,0(sp)
     bec:	dec00a04 	addi	sp,sp,40
     bf0:	f800283a 	ret
     bf4:	00bffe04 	movi	r2,-8
     bf8:	18a2703a 	and	r17,r3,r2
     bfc:	883fed16 	blt	r17,zero,bb4 <_malloc_r+0x44>
     c00:	897fec36 	bltu	r17,r5,bb4 <_malloc_r+0x44>
     c04:	9009883a 	mov	r4,r18
     c08:	000db200 	call	db20 <__malloc_lock>
     c0c:	00807dc4 	movi	r2,503
     c10:	14402b2e 	bgeu	r2,r17,cc0 <_malloc_r+0x150>
     c14:	8806d27a 	srli	r3,r17,9
     c18:	18003f1e 	bne	r3,zero,d18 <_malloc_r+0x1a8>
     c1c:	880cd0fa 	srli	r6,r17,3
     c20:	300490fa 	slli	r2,r6,3
     c24:	02c00074 	movhi	r11,1
     c28:	5afcbb04 	addi	r11,r11,-3348
     c2c:	12cb883a 	add	r5,r2,r11
     c30:	2c000317 	ldw	r16,12(r5)
     c34:	580f883a 	mov	r7,r11
     c38:	2c00041e 	bne	r5,r16,c4c <_malloc_r+0xdc>
     c3c:	00000a06 	br	c68 <_malloc_r+0xf8>
     c40:	1800860e 	bge	r3,zero,e5c <_malloc_r+0x2ec>
     c44:	84000317 	ldw	r16,12(r16)
     c48:	2c000726 	beq	r5,r16,c68 <_malloc_r+0xf8>
     c4c:	80800117 	ldw	r2,4(r16)
     c50:	00ffff04 	movi	r3,-4
     c54:	10c8703a 	and	r4,r2,r3
     c58:	2447c83a 	sub	r3,r4,r17
     c5c:	008003c4 	movi	r2,15
     c60:	10fff70e 	bge	r2,r3,c40 <_malloc_r+0xd0>
     c64:	31bfffc4 	addi	r6,r6,-1
     c68:	32400044 	addi	r9,r6,1
     c6c:	02800074 	movhi	r10,1
     c70:	52bcbd04 	addi	r10,r10,-3340
     c74:	54000217 	ldw	r16,8(r10)
     c78:	8280a026 	beq	r16,r10,efc <_malloc_r+0x38c>
     c7c:	80800117 	ldw	r2,4(r16)
     c80:	00ffff04 	movi	r3,-4
     c84:	10ca703a 	and	r5,r2,r3
     c88:	2c4dc83a 	sub	r6,r5,r17
     c8c:	008003c4 	movi	r2,15
     c90:	11808316 	blt	r2,r6,ea0 <_malloc_r+0x330>
     c94:	52800315 	stw	r10,12(r10)
     c98:	52800215 	stw	r10,8(r10)
     c9c:	30002916 	blt	r6,zero,d44 <_malloc_r+0x1d4>
     ca0:	8147883a 	add	r3,r16,r5
     ca4:	18800117 	ldw	r2,4(r3)
     ca8:	9009883a 	mov	r4,r18
     cac:	10800054 	ori	r2,r2,1
     cb0:	18800115 	stw	r2,4(r3)
     cb4:	000db240 	call	db24 <__malloc_unlock>
     cb8:	80c00204 	addi	r3,r16,8
     cbc:	003fc006 	br	bc0 <_malloc_r+0x50>
     cc0:	02c00074 	movhi	r11,1
     cc4:	5afcbb04 	addi	r11,r11,-3348
     cc8:	8ac5883a 	add	r2,r17,r11
     ccc:	14000317 	ldw	r16,12(r2)
     cd0:	580f883a 	mov	r7,r11
     cd4:	8806d0fa 	srli	r3,r17,3
     cd8:	14006c26 	beq	r2,r16,e8c <_malloc_r+0x31c>
     cdc:	80c00117 	ldw	r3,4(r16)
     ce0:	00bfff04 	movi	r2,-4
     ce4:	81800317 	ldw	r6,12(r16)
     ce8:	1886703a 	and	r3,r3,r2
     cec:	80c7883a 	add	r3,r16,r3
     cf0:	18800117 	ldw	r2,4(r3)
     cf4:	81400217 	ldw	r5,8(r16)
     cf8:	9009883a 	mov	r4,r18
     cfc:	10800054 	ori	r2,r2,1
     d00:	18800115 	stw	r2,4(r3)
     d04:	31400215 	stw	r5,8(r6)
     d08:	29800315 	stw	r6,12(r5)
     d0c:	000db240 	call	db24 <__malloc_unlock>
     d10:	80c00204 	addi	r3,r16,8
     d14:	003faa06 	br	bc0 <_malloc_r+0x50>
     d18:	00800104 	movi	r2,4
     d1c:	10c0052e 	bgeu	r2,r3,d34 <_malloc_r+0x1c4>
     d20:	00800504 	movi	r2,20
     d24:	10c07836 	bltu	r2,r3,f08 <_malloc_r+0x398>
     d28:	198016c4 	addi	r6,r3,91
     d2c:	300490fa 	slli	r2,r6,3
     d30:	003fbc06 	br	c24 <_malloc_r+0xb4>
     d34:	8804d1ba 	srli	r2,r17,6
     d38:	11800e04 	addi	r6,r2,56
     d3c:	300490fa 	slli	r2,r6,3
     d40:	003fb806 	br	c24 <_malloc_r+0xb4>
     d44:	00807fc4 	movi	r2,511
     d48:	1140bb36 	bltu	r2,r5,1038 <_malloc_r+0x4c8>
     d4c:	2806d0fa 	srli	r3,r5,3
     d50:	573ffe04 	addi	fp,r10,-8
     d54:	00800044 	movi	r2,1
     d58:	180890fa 	slli	r4,r3,3
     d5c:	1807d0ba 	srai	r3,r3,2
     d60:	e1c00117 	ldw	r7,4(fp)
     d64:	5909883a 	add	r4,r11,r4
     d68:	21400217 	ldw	r5,8(r4)
     d6c:	10c4983a 	sll	r2,r2,r3
     d70:	81000315 	stw	r4,12(r16)
     d74:	81400215 	stw	r5,8(r16)
     d78:	388eb03a 	or	r7,r7,r2
     d7c:	2c000315 	stw	r16,12(r5)
     d80:	24000215 	stw	r16,8(r4)
     d84:	e1c00115 	stw	r7,4(fp)
     d88:	4807883a 	mov	r3,r9
     d8c:	4800cd16 	blt	r9,zero,10c4 <_malloc_r+0x554>
     d90:	1807d0ba 	srai	r3,r3,2
     d94:	00800044 	movi	r2,1
     d98:	10c8983a 	sll	r4,r2,r3
     d9c:	39004436 	bltu	r7,r4,eb0 <_malloc_r+0x340>
     da0:	21c4703a 	and	r2,r4,r7
     da4:	10000a1e 	bne	r2,zero,dd0 <_malloc_r+0x260>
     da8:	2109883a 	add	r4,r4,r4
     dac:	00bfff04 	movi	r2,-4
     db0:	4884703a 	and	r2,r9,r2
     db4:	3906703a 	and	r3,r7,r4
     db8:	12400104 	addi	r9,r2,4
     dbc:	1800041e 	bne	r3,zero,dd0 <_malloc_r+0x260>
     dc0:	2109883a 	add	r4,r4,r4
     dc4:	3904703a 	and	r2,r7,r4
     dc8:	4a400104 	addi	r9,r9,4
     dcc:	103ffc26 	beq	r2,zero,dc0 <_malloc_r+0x250>
     dd0:	480490fa 	slli	r2,r9,3
     dd4:	4819883a 	mov	r12,r9
     dd8:	023fff04 	movi	r8,-4
     ddc:	589b883a 	add	r13,r11,r2
     de0:	6807883a 	mov	r3,r13
     de4:	014003c4 	movi	r5,15
     de8:	1c000317 	ldw	r16,12(r3)
     dec:	1c00041e 	bne	r3,r16,e00 <_malloc_r+0x290>
     df0:	0000a706 	br	1090 <_malloc_r+0x520>
     df4:	3000ab0e 	bge	r6,zero,10a4 <_malloc_r+0x534>
     df8:	84000317 	ldw	r16,12(r16)
     dfc:	1c00a426 	beq	r3,r16,1090 <_malloc_r+0x520>
     e00:	80800117 	ldw	r2,4(r16)
     e04:	1204703a 	and	r2,r2,r8
     e08:	144dc83a 	sub	r6,r2,r17
     e0c:	29bff90e 	bge	r5,r6,df4 <_malloc_r+0x284>
     e10:	81000317 	ldw	r4,12(r16)
     e14:	80c00217 	ldw	r3,8(r16)
     e18:	89400054 	ori	r5,r17,1
     e1c:	8445883a 	add	r2,r16,r17
     e20:	20c00215 	stw	r3,8(r4)
     e24:	19000315 	stw	r4,12(r3)
     e28:	81400115 	stw	r5,4(r16)
     e2c:	1187883a 	add	r3,r2,r6
     e30:	31000054 	ori	r4,r6,1
     e34:	50800315 	stw	r2,12(r10)
     e38:	50800215 	stw	r2,8(r10)
     e3c:	19800015 	stw	r6,0(r3)
     e40:	11000115 	stw	r4,4(r2)
     e44:	12800215 	stw	r10,8(r2)
     e48:	12800315 	stw	r10,12(r2)
     e4c:	9009883a 	mov	r4,r18
     e50:	000db240 	call	db24 <__malloc_unlock>
     e54:	80c00204 	addi	r3,r16,8
     e58:	003f5906 	br	bc0 <_malloc_r+0x50>
     e5c:	8109883a 	add	r4,r16,r4
     e60:	20800117 	ldw	r2,4(r4)
     e64:	80c00217 	ldw	r3,8(r16)
     e68:	81400317 	ldw	r5,12(r16)
     e6c:	10800054 	ori	r2,r2,1
     e70:	20800115 	stw	r2,4(r4)
     e74:	28c00215 	stw	r3,8(r5)
     e78:	19400315 	stw	r5,12(r3)
     e7c:	9009883a 	mov	r4,r18
     e80:	000db240 	call	db24 <__malloc_unlock>
     e84:	80c00204 	addi	r3,r16,8
     e88:	003f4d06 	br	bc0 <_malloc_r+0x50>
     e8c:	80800204 	addi	r2,r16,8
     e90:	14000317 	ldw	r16,12(r2)
     e94:	143f911e 	bne	r2,r16,cdc <_malloc_r+0x16c>
     e98:	1a400084 	addi	r9,r3,2
     e9c:	003f7306 	br	c6c <_malloc_r+0xfc>
     ea0:	88c00054 	ori	r3,r17,1
     ea4:	8445883a 	add	r2,r16,r17
     ea8:	80c00115 	stw	r3,4(r16)
     eac:	003fdf06 	br	e2c <_malloc_r+0x2bc>
     eb0:	e4000217 	ldw	r16,8(fp)
     eb4:	00bfff04 	movi	r2,-4
     eb8:	80c00117 	ldw	r3,4(r16)
     ebc:	802d883a 	mov	r22,r16
     ec0:	18aa703a 	and	r21,r3,r2
     ec4:	ac401636 	bltu	r21,r17,f20 <_malloc_r+0x3b0>
     ec8:	ac49c83a 	sub	r4,r21,r17
     ecc:	008003c4 	movi	r2,15
     ed0:	1100130e 	bge	r2,r4,f20 <_malloc_r+0x3b0>
     ed4:	88800054 	ori	r2,r17,1
     ed8:	8447883a 	add	r3,r16,r17
     edc:	80800115 	stw	r2,4(r16)
     ee0:	20800054 	ori	r2,r4,1
     ee4:	18800115 	stw	r2,4(r3)
     ee8:	e0c00215 	stw	r3,8(fp)
     eec:	9009883a 	mov	r4,r18
     ef0:	000db240 	call	db24 <__malloc_unlock>
     ef4:	80c00204 	addi	r3,r16,8
     ef8:	003f3106 	br	bc0 <_malloc_r+0x50>
     efc:	39c00117 	ldw	r7,4(r7)
     f00:	573ffe04 	addi	fp,r10,-8
     f04:	003fa006 	br	d88 <_malloc_r+0x218>
     f08:	00801504 	movi	r2,84
     f0c:	10c06736 	bltu	r2,r3,10ac <_malloc_r+0x53c>
     f10:	8804d33a 	srli	r2,r17,12
     f14:	11801b84 	addi	r6,r2,110
     f18:	300490fa 	slli	r2,r6,3
     f1c:	003f4106 	br	c24 <_malloc_r+0xb4>
     f20:	d0a6d417 	ldw	r2,-25776(gp)
     f24:	d0e00217 	ldw	r3,-32760(gp)
     f28:	053fffc4 	movi	r20,-1
     f2c:	10800404 	addi	r2,r2,16
     f30:	88a7883a 	add	r19,r17,r2
     f34:	1d000326 	beq	r3,r20,f44 <_malloc_r+0x3d4>
     f38:	98c3ffc4 	addi	r3,r19,4095
     f3c:	00bc0004 	movi	r2,-4096
     f40:	18a6703a 	and	r19,r3,r2
     f44:	9009883a 	mov	r4,r18
     f48:	980b883a 	mov	r5,r19
     f4c:	00014000 	call	1400 <_sbrk_r>
     f50:	1009883a 	mov	r4,r2
     f54:	15000426 	beq	r2,r20,f68 <_malloc_r+0x3f8>
     f58:	854b883a 	add	r5,r16,r21
     f5c:	1029883a 	mov	r20,r2
     f60:	11405a2e 	bgeu	r2,r5,10cc <_malloc_r+0x55c>
     f64:	87000c26 	beq	r16,fp,f98 <_malloc_r+0x428>
     f68:	e4000217 	ldw	r16,8(fp)
     f6c:	80c00117 	ldw	r3,4(r16)
     f70:	00bfff04 	movi	r2,-4
     f74:	1884703a 	and	r2,r3,r2
     f78:	14400336 	bltu	r2,r17,f88 <_malloc_r+0x418>
     f7c:	1449c83a 	sub	r4,r2,r17
     f80:	008003c4 	movi	r2,15
     f84:	113fd316 	blt	r2,r4,ed4 <_malloc_r+0x364>
     f88:	9009883a 	mov	r4,r18
     f8c:	000db240 	call	db24 <__malloc_unlock>
     f90:	0007883a 	mov	r3,zero
     f94:	003f0a06 	br	bc0 <_malloc_r+0x50>
     f98:	05c00074 	movhi	r23,1
     f9c:	bdca4e04 	addi	r23,r23,10552
     fa0:	b8800017 	ldw	r2,0(r23)
     fa4:	988d883a 	add	r6,r19,r2
     fa8:	b9800015 	stw	r6,0(r23)
     fac:	d0e00217 	ldw	r3,-32760(gp)
     fb0:	00bfffc4 	movi	r2,-1
     fb4:	18808e26 	beq	r3,r2,11f0 <_malloc_r+0x680>
     fb8:	2145c83a 	sub	r2,r4,r5
     fbc:	3085883a 	add	r2,r6,r2
     fc0:	b8800015 	stw	r2,0(r23)
     fc4:	20c001cc 	andi	r3,r4,7
     fc8:	18005f1e 	bne	r3,zero,1148 <_malloc_r+0x5d8>
     fcc:	000b883a 	mov	r5,zero
     fd0:	a4c5883a 	add	r2,r20,r19
     fd4:	1083ffcc 	andi	r2,r2,4095
     fd8:	00c40004 	movi	r3,4096
     fdc:	1887c83a 	sub	r3,r3,r2
     fe0:	28e7883a 	add	r19,r5,r3
     fe4:	9009883a 	mov	r4,r18
     fe8:	980b883a 	mov	r5,r19
     fec:	00014000 	call	1400 <_sbrk_r>
     ff0:	1007883a 	mov	r3,r2
     ff4:	00bfffc4 	movi	r2,-1
     ff8:	18807a26 	beq	r3,r2,11e4 <_malloc_r+0x674>
     ffc:	1d05c83a 	sub	r2,r3,r20
    1000:	9885883a 	add	r2,r19,r2
    1004:	10c00054 	ori	r3,r2,1
    1008:	b8800017 	ldw	r2,0(r23)
    100c:	a021883a 	mov	r16,r20
    1010:	a0c00115 	stw	r3,4(r20)
    1014:	9885883a 	add	r2,r19,r2
    1018:	b8800015 	stw	r2,0(r23)
    101c:	e5000215 	stw	r20,8(fp)
    1020:	b7003626 	beq	r22,fp,10fc <_malloc_r+0x58c>
    1024:	018003c4 	movi	r6,15
    1028:	35404b36 	bltu	r6,r21,1158 <_malloc_r+0x5e8>
    102c:	00800044 	movi	r2,1
    1030:	a0800115 	stw	r2,4(r20)
    1034:	003fcd06 	br	f6c <_malloc_r+0x3fc>
    1038:	2808d27a 	srli	r4,r5,9
    103c:	2000371e 	bne	r4,zero,111c <_malloc_r+0x5ac>
    1040:	2808d0fa 	srli	r4,r5,3
    1044:	200690fa 	slli	r3,r4,3
    1048:	1ad1883a 	add	r8,r3,r11
    104c:	41800217 	ldw	r6,8(r8)
    1050:	41805b26 	beq	r8,r6,11c0 <_malloc_r+0x650>
    1054:	30800117 	ldw	r2,4(r6)
    1058:	00ffff04 	movi	r3,-4
    105c:	10c4703a 	and	r2,r2,r3
    1060:	2880022e 	bgeu	r5,r2,106c <_malloc_r+0x4fc>
    1064:	31800217 	ldw	r6,8(r6)
    1068:	41bffa1e 	bne	r8,r6,1054 <_malloc_r+0x4e4>
    106c:	32000317 	ldw	r8,12(r6)
    1070:	39c00117 	ldw	r7,4(r7)
    1074:	82000315 	stw	r8,12(r16)
    1078:	81800215 	stw	r6,8(r16)
    107c:	07000074 	movhi	fp,1
    1080:	e73cbb04 	addi	fp,fp,-3348
    1084:	34000315 	stw	r16,12(r6)
    1088:	44000215 	stw	r16,8(r8)
    108c:	003f3e06 	br	d88 <_malloc_r+0x218>
    1090:	63000044 	addi	r12,r12,1
    1094:	608000cc 	andi	r2,r12,3
    1098:	10005d26 	beq	r2,zero,1210 <_malloc_r+0x6a0>
    109c:	18c00204 	addi	r3,r3,8
    10a0:	003f5106 	br	de8 <_malloc_r+0x278>
    10a4:	8089883a 	add	r4,r16,r2
    10a8:	003f6d06 	br	e60 <_malloc_r+0x2f0>
    10ac:	00805504 	movi	r2,340
    10b0:	10c02036 	bltu	r2,r3,1134 <_malloc_r+0x5c4>
    10b4:	8804d3fa 	srli	r2,r17,15
    10b8:	11801dc4 	addi	r6,r2,119
    10bc:	300490fa 	slli	r2,r6,3
    10c0:	003ed806 	br	c24 <_malloc_r+0xb4>
    10c4:	48c000c4 	addi	r3,r9,3
    10c8:	003f3106 	br	d90 <_malloc_r+0x220>
    10cc:	05c00074 	movhi	r23,1
    10d0:	bdca4e04 	addi	r23,r23,10552
    10d4:	b8800017 	ldw	r2,0(r23)
    10d8:	988d883a 	add	r6,r19,r2
    10dc:	b9800015 	stw	r6,0(r23)
    10e0:	293fb21e 	bne	r5,r4,fac <_malloc_r+0x43c>
    10e4:	2083ffcc 	andi	r2,r4,4095
    10e8:	103fb01e 	bne	r2,zero,fac <_malloc_r+0x43c>
    10ec:	e4000217 	ldw	r16,8(fp)
    10f0:	9d45883a 	add	r2,r19,r21
    10f4:	10800054 	ori	r2,r2,1
    10f8:	80800115 	stw	r2,4(r16)
    10fc:	b8c00017 	ldw	r3,0(r23)
    1100:	d0a6d517 	ldw	r2,-25772(gp)
    1104:	10c0012e 	bgeu	r2,r3,110c <_malloc_r+0x59c>
    1108:	d0e6d515 	stw	r3,-25772(gp)
    110c:	d0a6d617 	ldw	r2,-25768(gp)
    1110:	10ff962e 	bgeu	r2,r3,f6c <_malloc_r+0x3fc>
    1114:	d0e6d615 	stw	r3,-25768(gp)
    1118:	003f9406 	br	f6c <_malloc_r+0x3fc>
    111c:	00800104 	movi	r2,4
    1120:	11001e36 	bltu	r2,r4,119c <_malloc_r+0x62c>
    1124:	2804d1ba 	srli	r2,r5,6
    1128:	11000e04 	addi	r4,r2,56
    112c:	200690fa 	slli	r3,r4,3
    1130:	003fc506 	br	1048 <_malloc_r+0x4d8>
    1134:	00815504 	movi	r2,1364
    1138:	10c01d2e 	bgeu	r2,r3,11b0 <_malloc_r+0x640>
    113c:	01801f84 	movi	r6,126
    1140:	0080fc04 	movi	r2,1008
    1144:	003eb706 	br	c24 <_malloc_r+0xb4>
    1148:	00800204 	movi	r2,8
    114c:	10cbc83a 	sub	r5,r2,r3
    1150:	2169883a 	add	r20,r4,r5
    1154:	003f9e06 	br	fd0 <_malloc_r+0x460>
    1158:	00bffe04 	movi	r2,-8
    115c:	a93ffd04 	addi	r4,r21,-12
    1160:	2088703a 	and	r4,r4,r2
    1164:	b10b883a 	add	r5,r22,r4
    1168:	00c00144 	movi	r3,5
    116c:	28c00215 	stw	r3,8(r5)
    1170:	28c00115 	stw	r3,4(r5)
    1174:	b0800117 	ldw	r2,4(r22)
    1178:	1080004c 	andi	r2,r2,1
    117c:	2084b03a 	or	r2,r4,r2
    1180:	b0800115 	stw	r2,4(r22)
    1184:	313fdd2e 	bgeu	r6,r4,10fc <_malloc_r+0x58c>
    1188:	b1400204 	addi	r5,r22,8
    118c:	9009883a 	mov	r4,r18
    1190:	00072900 	call	7290 <_free_r>
    1194:	e4000217 	ldw	r16,8(fp)
    1198:	003fd806 	br	10fc <_malloc_r+0x58c>
    119c:	00800504 	movi	r2,20
    11a0:	11001536 	bltu	r2,r4,11f8 <_malloc_r+0x688>
    11a4:	210016c4 	addi	r4,r4,91
    11a8:	200690fa 	slli	r3,r4,3
    11ac:	003fa606 	br	1048 <_malloc_r+0x4d8>
    11b0:	8804d4ba 	srli	r2,r17,18
    11b4:	11801f04 	addi	r6,r2,124
    11b8:	300490fa 	slli	r2,r6,3
    11bc:	003e9906 	br	c24 <_malloc_r+0xb4>
    11c0:	2009d0ba 	srai	r4,r4,2
    11c4:	01400074 	movhi	r5,1
    11c8:	297cbb04 	addi	r5,r5,-3348
    11cc:	00c00044 	movi	r3,1
    11d0:	28800117 	ldw	r2,4(r5)
    11d4:	1906983a 	sll	r3,r3,r4
    11d8:	10c4b03a 	or	r2,r2,r3
    11dc:	28800115 	stw	r2,4(r5)
    11e0:	003fa306 	br	1070 <_malloc_r+0x500>
    11e4:	0027883a 	mov	r19,zero
    11e8:	00c00044 	movi	r3,1
    11ec:	003f8606 	br	1008 <_malloc_r+0x498>
    11f0:	d1200215 	stw	r4,-32760(gp)
    11f4:	003f7306 	br	fc4 <_malloc_r+0x454>
    11f8:	00801504 	movi	r2,84
    11fc:	11001936 	bltu	r2,r4,1264 <_malloc_r+0x6f4>
    1200:	2804d33a 	srli	r2,r5,12
    1204:	11001b84 	addi	r4,r2,110
    1208:	200690fa 	slli	r3,r4,3
    120c:	003f8e06 	br	1048 <_malloc_r+0x4d8>
    1210:	480b883a 	mov	r5,r9
    1214:	6807883a 	mov	r3,r13
    1218:	288000cc 	andi	r2,r5,3
    121c:	18fffe04 	addi	r3,r3,-8
    1220:	297fffc4 	addi	r5,r5,-1
    1224:	10001526 	beq	r2,zero,127c <_malloc_r+0x70c>
    1228:	18800217 	ldw	r2,8(r3)
    122c:	10fffa26 	beq	r2,r3,1218 <_malloc_r+0x6a8>
    1230:	2109883a 	add	r4,r4,r4
    1234:	393f1e36 	bltu	r7,r4,eb0 <_malloc_r+0x340>
    1238:	203f1d26 	beq	r4,zero,eb0 <_malloc_r+0x340>
    123c:	21c4703a 	and	r2,r4,r7
    1240:	10000226 	beq	r2,zero,124c <_malloc_r+0x6dc>
    1244:	6013883a 	mov	r9,r12
    1248:	003ee106 	br	dd0 <_malloc_r+0x260>
    124c:	2109883a 	add	r4,r4,r4
    1250:	3904703a 	and	r2,r7,r4
    1254:	63000104 	addi	r12,r12,4
    1258:	103ffc26 	beq	r2,zero,124c <_malloc_r+0x6dc>
    125c:	6013883a 	mov	r9,r12
    1260:	003edb06 	br	dd0 <_malloc_r+0x260>
    1264:	00805504 	movi	r2,340
    1268:	11000836 	bltu	r2,r4,128c <_malloc_r+0x71c>
    126c:	2804d3fa 	srli	r2,r5,15
    1270:	11001dc4 	addi	r4,r2,119
    1274:	200690fa 	slli	r3,r4,3
    1278:	003f7306 	br	1048 <_malloc_r+0x4d8>
    127c:	0104303a 	nor	r2,zero,r4
    1280:	388e703a 	and	r7,r7,r2
    1284:	e1c00115 	stw	r7,4(fp)
    1288:	003fe906 	br	1230 <_malloc_r+0x6c0>
    128c:	00815504 	movi	r2,1364
    1290:	1100032e 	bgeu	r2,r4,12a0 <_malloc_r+0x730>
    1294:	01001f84 	movi	r4,126
    1298:	00c0fc04 	movi	r3,1008
    129c:	003f6a06 	br	1048 <_malloc_r+0x4d8>
    12a0:	2804d4ba 	srli	r2,r5,18
    12a4:	11001f04 	addi	r4,r2,124
    12a8:	200690fa 	slli	r3,r4,3
    12ac:	003f6606 	br	1048 <_malloc_r+0x4d8>

000012b0 <printf>:
    12b0:	defffb04 	addi	sp,sp,-20
    12b4:	dfc00115 	stw	ra,4(sp)
    12b8:	d9400215 	stw	r5,8(sp)
    12bc:	d9800315 	stw	r6,12(sp)
    12c0:	d9c00415 	stw	r7,16(sp)
    12c4:	00800074 	movhi	r2,1
    12c8:	10837004 	addi	r2,r2,3520
    12cc:	10c00017 	ldw	r3,0(r2)
    12d0:	200b883a 	mov	r5,r4
    12d4:	d8800204 	addi	r2,sp,8
    12d8:	19000217 	ldw	r4,8(r3)
    12dc:	100d883a 	mov	r6,r2
    12e0:	d8800015 	stw	r2,0(sp)
    12e4:	00052e80 	call	52e8 <__vfprintf_internal>
    12e8:	dfc00117 	ldw	ra,4(sp)
    12ec:	dec00504 	addi	sp,sp,20
    12f0:	f800283a 	ret

000012f4 <_printf_r>:
    12f4:	defffc04 	addi	sp,sp,-16
    12f8:	dfc00115 	stw	ra,4(sp)
    12fc:	d9800215 	stw	r6,8(sp)
    1300:	d9c00315 	stw	r7,12(sp)
    1304:	280d883a 	mov	r6,r5
    1308:	21400217 	ldw	r5,8(r4)
    130c:	d8c00204 	addi	r3,sp,8
    1310:	180f883a 	mov	r7,r3
    1314:	d8c00015 	stw	r3,0(sp)
    1318:	00034240 	call	3424 <___vfprintf_internal_r>
    131c:	dfc00117 	ldw	ra,4(sp)
    1320:	dec00404 	addi	sp,sp,16
    1324:	f800283a 	ret

00001328 <putchar>:
    1328:	00800074 	movhi	r2,1
    132c:	10837004 	addi	r2,r2,3520
    1330:	11800017 	ldw	r6,0(r2)
    1334:	200b883a 	mov	r5,r4
    1338:	3009883a 	mov	r4,r6
    133c:	31800217 	ldw	r6,8(r6)
    1340:	0009ee41 	jmpi	9ee4 <_putc_r>

00001344 <_putchar_r>:
    1344:	21800217 	ldw	r6,8(r4)
    1348:	0009ee41 	jmpi	9ee4 <_putc_r>

0000134c <_puts_r>:
    134c:	defff604 	addi	sp,sp,-40
    1350:	dc400715 	stw	r17,28(sp)
    1354:	2023883a 	mov	r17,r4
    1358:	2809883a 	mov	r4,r5
    135c:	dfc00915 	stw	ra,36(sp)
    1360:	dcc00815 	stw	r19,32(sp)
    1364:	2827883a 	mov	r19,r5
    1368:	00014700 	call	1470 <strlen>
    136c:	89400217 	ldw	r5,8(r17)
    1370:	00c00074 	movhi	r3,1
    1374:	18fbce04 	addi	r3,r3,-4296
    1378:	01c00044 	movi	r7,1
    137c:	12000044 	addi	r8,r2,1
    1380:	d8c00515 	stw	r3,20(sp)
    1384:	d9c00615 	stw	r7,24(sp)
    1388:	d8c00304 	addi	r3,sp,12
    138c:	01c00084 	movi	r7,2
    1390:	8809883a 	mov	r4,r17
    1394:	d80d883a 	mov	r6,sp
    1398:	d8c00015 	stw	r3,0(sp)
    139c:	dcc00315 	stw	r19,12(sp)
    13a0:	da000215 	stw	r8,8(sp)
    13a4:	d9c00115 	stw	r7,4(sp)
    13a8:	d8800415 	stw	r2,16(sp)
    13ac:	00075a40 	call	75a4 <__sfvwrite_r>
    13b0:	00ffffc4 	movi	r3,-1
    13b4:	10000626 	beq	r2,zero,13d0 <_puts_r+0x84>
    13b8:	1805883a 	mov	r2,r3
    13bc:	dfc00917 	ldw	ra,36(sp)
    13c0:	dcc00817 	ldw	r19,32(sp)
    13c4:	dc400717 	ldw	r17,28(sp)
    13c8:	dec00a04 	addi	sp,sp,40
    13cc:	f800283a 	ret
    13d0:	00c00284 	movi	r3,10
    13d4:	1805883a 	mov	r2,r3
    13d8:	dfc00917 	ldw	ra,36(sp)
    13dc:	dcc00817 	ldw	r19,32(sp)
    13e0:	dc400717 	ldw	r17,28(sp)
    13e4:	dec00a04 	addi	sp,sp,40
    13e8:	f800283a 	ret

000013ec <puts>:
    13ec:	00800074 	movhi	r2,1
    13f0:	10837004 	addi	r2,r2,3520
    13f4:	200b883a 	mov	r5,r4
    13f8:	11000017 	ldw	r4,0(r2)
    13fc:	000134c1 	jmpi	134c <_puts_r>

00001400 <_sbrk_r>:
    1400:	defffd04 	addi	sp,sp,-12
    1404:	dc000015 	stw	r16,0(sp)
    1408:	04000074 	movhi	r16,1
    140c:	840a4404 	addi	r16,r16,10512
    1410:	dc400115 	stw	r17,4(sp)
    1414:	80000015 	stw	zero,0(r16)
    1418:	2023883a 	mov	r17,r4
    141c:	2809883a 	mov	r4,r5
    1420:	dfc00215 	stw	ra,8(sp)
    1424:	000dca40 	call	dca4 <sbrk>
    1428:	1007883a 	mov	r3,r2
    142c:	00bfffc4 	movi	r2,-1
    1430:	18800626 	beq	r3,r2,144c <_sbrk_r+0x4c>
    1434:	1805883a 	mov	r2,r3
    1438:	dfc00217 	ldw	ra,8(sp)
    143c:	dc400117 	ldw	r17,4(sp)
    1440:	dc000017 	ldw	r16,0(sp)
    1444:	dec00304 	addi	sp,sp,12
    1448:	f800283a 	ret
    144c:	80800017 	ldw	r2,0(r16)
    1450:	103ff826 	beq	r2,zero,1434 <_sbrk_r+0x34>
    1454:	88800015 	stw	r2,0(r17)
    1458:	1805883a 	mov	r2,r3
    145c:	dfc00217 	ldw	ra,8(sp)
    1460:	dc400117 	ldw	r17,4(sp)
    1464:	dc000017 	ldw	r16,0(sp)
    1468:	dec00304 	addi	sp,sp,12
    146c:	f800283a 	ret

00001470 <strlen>:
    1470:	208000cc 	andi	r2,r4,3
    1474:	2011883a 	mov	r8,r4
    1478:	1000161e 	bne	r2,zero,14d4 <strlen+0x64>
    147c:	20c00017 	ldw	r3,0(r4)
    1480:	017fbff4 	movhi	r5,65279
    1484:	297fbfc4 	addi	r5,r5,-257
    1488:	01e02074 	movhi	r7,32897
    148c:	39e02004 	addi	r7,r7,-32640
    1490:	1945883a 	add	r2,r3,r5
    1494:	11c4703a 	and	r2,r2,r7
    1498:	00c6303a 	nor	r3,zero,r3
    149c:	1886703a 	and	r3,r3,r2
    14a0:	18000c1e 	bne	r3,zero,14d4 <strlen+0x64>
    14a4:	280d883a 	mov	r6,r5
    14a8:	380b883a 	mov	r5,r7
    14ac:	21000104 	addi	r4,r4,4
    14b0:	20800017 	ldw	r2,0(r4)
    14b4:	1187883a 	add	r3,r2,r6
    14b8:	1946703a 	and	r3,r3,r5
    14bc:	0084303a 	nor	r2,zero,r2
    14c0:	10c4703a 	and	r2,r2,r3
    14c4:	103ff926 	beq	r2,zero,14ac <strlen+0x3c>
    14c8:	20800007 	ldb	r2,0(r4)
    14cc:	10000326 	beq	r2,zero,14dc <strlen+0x6c>
    14d0:	21000044 	addi	r4,r4,1
    14d4:	20800007 	ldb	r2,0(r4)
    14d8:	103ffd1e 	bne	r2,zero,14d0 <strlen+0x60>
    14dc:	2205c83a 	sub	r2,r4,r8
    14e0:	f800283a 	ret

000014e4 <critical_factorization>:
    14e4:	03000044 	movi	r12,1
    14e8:	6013883a 	mov	r9,r12
    14ec:	037fffc4 	movi	r13,-1
    14f0:	0011883a 	mov	r8,zero
    14f4:	6905883a 	add	r2,r13,r4
    14f8:	424f883a 	add	r7,r8,r9
    14fc:	1245883a 	add	r2,r2,r9
    1500:	21c7883a 	add	r3,r4,r7
    1504:	39400b2e 	bgeu	r7,r5,1534 <critical_factorization+0x50>
    1508:	18c00003 	ldbu	r3,0(r3)
    150c:	10800003 	ldbu	r2,0(r2)
    1510:	1880232e 	bgeu	r3,r2,15a0 <critical_factorization+0xbc>
    1514:	3b59c83a 	sub	r12,r7,r13
    1518:	02400044 	movi	r9,1
    151c:	3811883a 	mov	r8,r7
    1520:	6905883a 	add	r2,r13,r4
    1524:	424f883a 	add	r7,r8,r9
    1528:	1245883a 	add	r2,r2,r9
    152c:	21c7883a 	add	r3,r4,r7
    1530:	397ff536 	bltu	r7,r5,1508 <critical_factorization+0x24>
    1534:	02c00044 	movi	r11,1
    1538:	5815883a 	mov	r10,r11
    153c:	027fffc4 	movi	r9,-1
    1540:	0011883a 	mov	r8,zero
    1544:	4905883a 	add	r2,r9,r4
    1548:	428f883a 	add	r7,r8,r10
    154c:	33000015 	stw	r12,0(r6)
    1550:	1285883a 	add	r2,r2,r10
    1554:	3907883a 	add	r3,r7,r4
    1558:	39400b2e 	bgeu	r7,r5,1588 <critical_factorization+0xa4>
    155c:	18c00003 	ldbu	r3,0(r3)
    1560:	10800003 	ldbu	r2,0(r2)
    1564:	10c01a2e 	bgeu	r2,r3,15d0 <critical_factorization+0xec>
    1568:	3a57c83a 	sub	r11,r7,r9
    156c:	02800044 	movi	r10,1
    1570:	3811883a 	mov	r8,r7
    1574:	4905883a 	add	r2,r9,r4
    1578:	428f883a 	add	r7,r8,r10
    157c:	1285883a 	add	r2,r2,r10
    1580:	3907883a 	add	r3,r7,r4
    1584:	397ff536 	bltu	r7,r5,155c <critical_factorization+0x78>
    1588:	48c00044 	addi	r3,r9,1
    158c:	68800044 	addi	r2,r13,1
    1590:	18800236 	bltu	r3,r2,159c <critical_factorization+0xb8>
    1594:	32c00015 	stw	r11,0(r6)
    1598:	1805883a 	mov	r2,r3
    159c:	f800283a 	ret
    15a0:	18800626 	beq	r3,r2,15bc <critical_factorization+0xd8>
    15a4:	03000044 	movi	r12,1
    15a8:	430f883a 	add	r7,r8,r12
    15ac:	401b883a 	mov	r13,r8
    15b0:	6013883a 	mov	r9,r12
    15b4:	3811883a 	mov	r8,r7
    15b8:	003fd906 	br	1520 <critical_factorization+0x3c>
    15bc:	4b001026 	beq	r9,r12,1600 <critical_factorization+0x11c>
    15c0:	400f883a 	mov	r7,r8
    15c4:	4a400044 	addi	r9,r9,1
    15c8:	3811883a 	mov	r8,r7
    15cc:	003fd406 	br	1520 <critical_factorization+0x3c>
    15d0:	18800626 	beq	r3,r2,15ec <critical_factorization+0x108>
    15d4:	02c00044 	movi	r11,1
    15d8:	42cf883a 	add	r7,r8,r11
    15dc:	4013883a 	mov	r9,r8
    15e0:	5815883a 	mov	r10,r11
    15e4:	3811883a 	mov	r8,r7
    15e8:	003fe206 	br	1574 <critical_factorization+0x90>
    15ec:	52c00726 	beq	r10,r11,160c <critical_factorization+0x128>
    15f0:	400f883a 	mov	r7,r8
    15f4:	52800044 	addi	r10,r10,1
    15f8:	3811883a 	mov	r8,r7
    15fc:	003fdd06 	br	1574 <critical_factorization+0x90>
    1600:	02400044 	movi	r9,1
    1604:	3811883a 	mov	r8,r7
    1608:	003fc506 	br	1520 <critical_factorization+0x3c>
    160c:	02800044 	movi	r10,1
    1610:	3811883a 	mov	r8,r7
    1614:	003fd706 	br	1574 <critical_factorization+0x90>

00001618 <strstr>:
    1618:	defef404 	addi	sp,sp,-1072
    161c:	dd810815 	stw	r22,1056(sp)
    1620:	dc410315 	stw	r17,1036(sp)
    1624:	dfc10b15 	stw	ra,1068(sp)
    1628:	df010a15 	stw	fp,1064(sp)
    162c:	ddc10915 	stw	r23,1060(sp)
    1630:	dd410715 	stw	r21,1052(sp)
    1634:	dd010615 	stw	r20,1048(sp)
    1638:	dcc10515 	stw	r19,1044(sp)
    163c:	dc810415 	stw	r18,1040(sp)
    1640:	dc010215 	stw	r16,1032(sp)
    1644:	2023883a 	mov	r17,r4
    1648:	21000007 	ldb	r4,0(r4)
    164c:	282d883a 	mov	r22,r5
    1650:	2000d026 	beq	r4,zero,1994 <strstr+0x37c>
    1654:	28800007 	ldb	r2,0(r5)
    1658:	10001026 	beq	r2,zero,169c <strstr+0x84>
    165c:	2821883a 	mov	r16,r5
    1660:	8807883a 	mov	r3,r17
    1664:	01400044 	movi	r5,1
    1668:	00000206 	br	1674 <strstr+0x5c>
    166c:	80800007 	ldb	r2,0(r16)
    1670:	10000826 	beq	r2,zero,1694 <strstr+0x7c>
    1674:	18c00044 	addi	r3,r3,1
    1678:	2085003a 	cmpeq	r2,r4,r2
    167c:	19000007 	ldb	r4,0(r3)
    1680:	288a703a 	and	r5,r5,r2
    1684:	84000044 	addi	r16,r16,1
    1688:	203ff81e 	bne	r4,zero,166c <strstr+0x54>
    168c:	80800007 	ldb	r2,0(r16)
    1690:	1000611e 	bne	r2,zero,1818 <strstr+0x200>
    1694:	2805003a 	cmpeq	r2,r5,zero
    1698:	10000e1e 	bne	r2,zero,16d4 <strstr+0xbc>
    169c:	8825883a 	mov	r18,r17
    16a0:	9005883a 	mov	r2,r18
    16a4:	dfc10b17 	ldw	ra,1068(sp)
    16a8:	df010a17 	ldw	fp,1064(sp)
    16ac:	ddc10917 	ldw	r23,1060(sp)
    16b0:	dd810817 	ldw	r22,1056(sp)
    16b4:	dd410717 	ldw	r21,1052(sp)
    16b8:	dd010617 	ldw	r20,1048(sp)
    16bc:	dcc10517 	ldw	r19,1044(sp)
    16c0:	dc810417 	ldw	r18,1040(sp)
    16c4:	dc410317 	ldw	r17,1036(sp)
    16c8:	dc010217 	ldw	r16,1032(sp)
    16cc:	dec10c04 	addi	sp,sp,1072
    16d0:	f800283a 	ret
    16d4:	b1400007 	ldb	r5,0(r22)
    16d8:	89000044 	addi	r4,r17,1
    16dc:	04c00044 	movi	r19,1
    16e0:	000a77c0 	call	a77c <strchr>
    16e4:	1025883a 	mov	r18,r2
    16e8:	103fed26 	beq	r2,zero,16a0 <strstr+0x88>
    16ec:	85a1c83a 	sub	r16,r16,r22
    16f0:	84ffeb26 	beq	r16,r19,16a0 <strstr+0x88>
    16f4:	8c09883a 	add	r4,r17,r16
    16f8:	2080492e 	bgeu	r4,r2,1820 <strstr+0x208>
    16fc:	9829883a 	mov	r20,r19
    1700:	008007c4 	movi	r2,31
    1704:	14004836 	bltu	r2,r16,1828 <strstr+0x210>
    1708:	b009883a 	mov	r4,r22
    170c:	800b883a 	mov	r5,r16
    1710:	d80d883a 	mov	r6,sp
    1714:	00014e40 	call	14e4 <critical_factorization>
    1718:	d9400017 	ldw	r5,0(sp)
    171c:	b009883a 	mov	r4,r22
    1720:	100d883a 	mov	r6,r2
    1724:	b14b883a 	add	r5,r22,r5
    1728:	1027883a 	mov	r19,r2
    172c:	0008ac80 	call	8ac8 <memcmp>
    1730:	1000b526 	beq	r2,zero,1a08 <strstr+0x3f0>
    1734:	84efc83a 	sub	r23,r16,r19
    1738:	9805883a 	mov	r2,r19
    173c:	9dc0012e 	bgeu	r19,r23,1744 <strstr+0x12c>
    1740:	b805883a 	mov	r2,r23
    1744:	10800044 	addi	r2,r2,1
    1748:	002b883a 	mov	r21,zero
    174c:	d8800015 	stw	r2,0(sp)
    1750:	ac23883a 	add	r17,r21,r16
    1754:	8d0dc83a 	sub	r6,r17,r20
    1758:	9509883a 	add	r4,r18,r20
    175c:	000b883a 	mov	r5,zero
    1760:	00089e40 	call	89e4 <memchr>
    1764:	10002c1e 	bne	r2,zero,1818 <strstr+0x200>
    1768:	88002b26 	beq	r17,zero,1818 <strstr+0x200>
    176c:	9c00122e 	bgeu	r19,r16,17b8 <strstr+0x1a0>
    1770:	acc5883a 	add	r2,r21,r19
    1774:	908b883a 	add	r5,r18,r2
    1778:	b4c9883a 	add	r4,r22,r19
    177c:	20c00003 	ldbu	r3,0(r4)
    1780:	28800003 	ldbu	r2,0(r5)
    1784:	1881331e 	bne	r3,r2,1c54 <strstr+0x63c>
    1788:	200d883a 	mov	r6,r4
    178c:	29400044 	addi	r5,r5,1
    1790:	9809883a 	mov	r4,r19
    1794:	9dcf883a 	add	r7,r19,r23
    1798:	00000506 	br	17b0 <strstr+0x198>
    179c:	30c00043 	ldbu	r3,1(r6)
    17a0:	28800003 	ldbu	r2,0(r5)
    17a4:	31800044 	addi	r6,r6,1
    17a8:	29400044 	addi	r5,r5,1
    17ac:	10c1161e 	bne	r2,r3,1c08 <strstr+0x5f0>
    17b0:	21000044 	addi	r4,r4,1
    17b4:	21fff91e 	bne	r4,r7,179c <strstr+0x184>
    17b8:	01ffffc4 	movi	r7,-1
    17bc:	99cd883a 	add	r6,r19,r7
    17c0:	31c12726 	beq	r6,r7,1c60 <strstr+0x648>
    17c4:	ac91883a 	add	r8,r21,r18
    17c8:	b187883a 	add	r3,r22,r6
    17cc:	4189883a 	add	r4,r8,r6
    17d0:	19400003 	ldbu	r5,0(r3)
    17d4:	20800003 	ldbu	r2,0(r4)
    17d8:	2881141e 	bne	r5,r2,1c2c <strstr+0x614>
    17dc:	acc5883a 	add	r2,r21,r19
    17e0:	9085883a 	add	r2,r18,r2
    17e4:	b4c7883a 	add	r3,r22,r19
    17e8:	197fff84 	addi	r5,r3,-2
    17ec:	113fff84 	addi	r4,r2,-2
    17f0:	00000506 	br	1808 <strstr+0x1f0>
    17f4:	28c00003 	ldbu	r3,0(r5)
    17f8:	20800003 	ldbu	r2,0(r4)
    17fc:	297fffc4 	addi	r5,r5,-1
    1800:	213fffc4 	addi	r4,r4,-1
    1804:	10c1091e 	bne	r2,r3,1c2c <strstr+0x614>
    1808:	31bfffc4 	addi	r6,r6,-1
    180c:	31fff91e 	bne	r6,r7,17f4 <strstr+0x1dc>
    1810:	4025883a 	mov	r18,r8
    1814:	003fa206 	br	16a0 <strstr+0x88>
    1818:	0025883a 	mov	r18,zero
    181c:	003fa006 	br	16a0 <strstr+0x88>
    1820:	20a9c83a 	sub	r20,r4,r2
    1824:	003fb606 	br	1700 <strstr+0xe8>
    1828:	b009883a 	mov	r4,r22
    182c:	800b883a 	mov	r5,r16
    1830:	d80d883a 	mov	r6,sp
    1834:	00014e40 	call	14e4 <critical_factorization>
    1838:	102b883a 	mov	r21,r2
    183c:	d8c10104 	addi	r3,sp,1028
    1840:	d8800104 	addi	r2,sp,4
    1844:	14000015 	stw	r16,0(r2)
    1848:	10800104 	addi	r2,r2,4
    184c:	10fffd1e 	bne	r2,r3,1844 <strstr+0x22c>
    1850:	84ffffc4 	addi	r19,r16,-1
    1854:	b009883a 	mov	r4,r22
    1858:	9807883a 	mov	r3,r19
    185c:	017fffc4 	movi	r5,-1
    1860:	20800003 	ldbu	r2,0(r4)
    1864:	21000044 	addi	r4,r4,1
    1868:	1085883a 	add	r2,r2,r2
    186c:	1085883a 	add	r2,r2,r2
    1870:	16c5883a 	add	r2,r2,sp
    1874:	10c00115 	stw	r3,4(r2)
    1878:	18ffffc4 	addi	r3,r3,-1
    187c:	197ff81e 	bne	r3,r5,1860 <strstr+0x248>
    1880:	d9400017 	ldw	r5,0(sp)
    1884:	b009883a 	mov	r4,r22
    1888:	a80d883a 	mov	r6,r21
    188c:	b14b883a 	add	r5,r22,r5
    1890:	0008ac80 	call	8ac8 <memcmp>
    1894:	10004226 	beq	r2,zero,19a0 <strstr+0x388>
    1898:	8547c83a 	sub	r3,r16,r21
    189c:	a805883a 	mov	r2,r21
    18a0:	a8c0012e 	bgeu	r21,r3,18a8 <strstr+0x290>
    18a4:	1805883a 	mov	r2,r3
    18a8:	10800044 	addi	r2,r2,1
    18ac:	002f883a 	mov	r23,zero
    18b0:	b579883a 	add	fp,r22,r21
    18b4:	d8800015 	stw	r2,0(sp)
    18b8:	bc23883a 	add	r17,r23,r16
    18bc:	8d0dc83a 	sub	r6,r17,r20
    18c0:	9509883a 	add	r4,r18,r20
    18c4:	000b883a 	mov	r5,zero
    18c8:	00089e40 	call	89e4 <memchr>
    18cc:	103fd21e 	bne	r2,zero,1818 <strstr+0x200>
    18d0:	883fd126 	beq	r17,zero,1818 <strstr+0x200>
    18d4:	9447883a 	add	r3,r18,r17
    18d8:	18bfffc3 	ldbu	r2,-1(r3)
    18dc:	1085883a 	add	r2,r2,r2
    18e0:	1085883a 	add	r2,r2,r2
    18e4:	16c5883a 	add	r2,r2,sp
    18e8:	10800117 	ldw	r2,4(r2)
    18ec:	1000b61e 	bne	r2,zero,1bc8 <strstr+0x5b0>
    18f0:	acc0102e 	bgeu	r21,r19,1934 <strstr+0x31c>
    18f4:	bd45883a 	add	r2,r23,r21
    18f8:	9089883a 	add	r4,r18,r2
    18fc:	20c00003 	ldbu	r3,0(r4)
    1900:	e0800003 	ldbu	r2,0(fp)
    1904:	1880af1e 	bne	r3,r2,1bc4 <strstr+0x5ac>
    1908:	21800044 	addi	r6,r4,1
    190c:	e00b883a 	mov	r5,fp
    1910:	a809883a 	mov	r4,r21
    1914:	00000506 	br	192c <strstr+0x314>
    1918:	28c00043 	ldbu	r3,1(r5)
    191c:	30800003 	ldbu	r2,0(r6)
    1920:	29400044 	addi	r5,r5,1
    1924:	31800044 	addi	r6,r6,1
    1928:	10c0bc1e 	bne	r2,r3,1c1c <strstr+0x604>
    192c:	21000044 	addi	r4,r4,1
    1930:	24fff936 	bltu	r4,r19,1918 <strstr+0x300>
    1934:	01ffffc4 	movi	r7,-1
    1938:	a9cd883a 	add	r6,r21,r7
    193c:	31c0cb26 	beq	r6,r7,1c6c <strstr+0x654>
    1940:	bc91883a 	add	r8,r23,r18
    1944:	b187883a 	add	r3,r22,r6
    1948:	4189883a 	add	r4,r8,r6
    194c:	19400003 	ldbu	r5,0(r3)
    1950:	20800003 	ldbu	r2,0(r4)
    1954:	2880b91e 	bne	r5,r2,1c3c <strstr+0x624>
    1958:	bd45883a 	add	r2,r23,r21
    195c:	9085883a 	add	r2,r18,r2
    1960:	b547883a 	add	r3,r22,r21
    1964:	197fff84 	addi	r5,r3,-2
    1968:	113fff84 	addi	r4,r2,-2
    196c:	00000506 	br	1984 <strstr+0x36c>
    1970:	28c00003 	ldbu	r3,0(r5)
    1974:	20800003 	ldbu	r2,0(r4)
    1978:	297fffc4 	addi	r5,r5,-1
    197c:	213fffc4 	addi	r4,r4,-1
    1980:	10c0ae1e 	bne	r2,r3,1c3c <strstr+0x624>
    1984:	31bfffc4 	addi	r6,r6,-1
    1988:	31fff91e 	bne	r6,r7,1970 <strstr+0x358>
    198c:	4025883a 	mov	r18,r8
    1990:	003f4306 	br	16a0 <strstr+0x88>
    1994:	2821883a 	mov	r16,r5
    1998:	01400044 	movi	r5,1
    199c:	003f3b06 	br	168c <strstr+0x74>
    19a0:	a8bfffc4 	addi	r2,r21,-1
    19a4:	002f883a 	mov	r23,zero
    19a8:	0039883a 	mov	fp,zero
    19ac:	d8810115 	stw	r2,1028(sp)
    19b0:	bc23883a 	add	r17,r23,r16
    19b4:	8d0dc83a 	sub	r6,r17,r20
    19b8:	9509883a 	add	r4,r18,r20
    19bc:	000b883a 	mov	r5,zero
    19c0:	00089e40 	call	89e4 <memchr>
    19c4:	103f941e 	bne	r2,zero,1818 <strstr+0x200>
    19c8:	883f9326 	beq	r17,zero,1818 <strstr+0x200>
    19cc:	9447883a 	add	r3,r18,r17
    19d0:	18bfffc3 	ldbu	r2,-1(r3)
    19d4:	1085883a 	add	r2,r2,r2
    19d8:	1085883a 	add	r2,r2,r2
    19dc:	16c5883a 	add	r2,r2,sp
    19e0:	10800117 	ldw	r2,4(r2)
    19e4:	10004526 	beq	r2,zero,1afc <strstr+0x4e4>
    19e8:	e0000426 	beq	fp,zero,19fc <strstr+0x3e4>
    19ec:	d8c00017 	ldw	r3,0(sp)
    19f0:	10c0022e 	bgeu	r2,r3,19fc <strstr+0x3e4>
    19f4:	80c5c83a 	sub	r2,r16,r3
    19f8:	0039883a 	mov	fp,zero
    19fc:	b8af883a 	add	r23,r23,r2
    1a00:	8829883a 	mov	r20,r17
    1a04:	003fea06 	br	19b0 <strstr+0x398>
    1a08:	002f883a 	mov	r23,zero
    1a0c:	0023883a 	mov	r17,zero
    1a10:	9f3fffc4 	addi	fp,r19,-1
    1a14:	bc2b883a 	add	r21,r23,r16
    1a18:	ad0dc83a 	sub	r6,r21,r20
    1a1c:	9509883a 	add	r4,r18,r20
    1a20:	000b883a 	mov	r5,zero
    1a24:	00089e40 	call	89e4 <memchr>
    1a28:	103f7b1e 	bne	r2,zero,1818 <strstr+0x200>
    1a2c:	a83f7a26 	beq	r21,zero,1818 <strstr+0x200>
    1a30:	880b883a 	mov	r5,r17
    1a34:	8cc0012e 	bgeu	r17,r19,1a3c <strstr+0x424>
    1a38:	980b883a 	mov	r5,r19
    1a3c:	2c00112e 	bgeu	r5,r16,1a84 <strstr+0x46c>
    1a40:	b945883a 	add	r2,r23,r5
    1a44:	908f883a 	add	r7,r18,r2
    1a48:	b149883a 	add	r4,r22,r5
    1a4c:	20c00003 	ldbu	r3,0(r4)
    1a50:	38800003 	ldbu	r2,0(r7)
    1a54:	1880551e 	bne	r3,r2,1bac <strstr+0x594>
    1a58:	200d883a 	mov	r6,r4
    1a5c:	39000044 	addi	r4,r7,1
    1a60:	800f883a 	mov	r7,r16
    1a64:	00000506 	br	1a7c <strstr+0x464>
    1a68:	30c00043 	ldbu	r3,1(r6)
    1a6c:	20800003 	ldbu	r2,0(r4)
    1a70:	31800044 	addi	r6,r6,1
    1a74:	21000044 	addi	r4,r4,1
    1a78:	10c04c1e 	bne	r2,r3,1bac <strstr+0x594>
    1a7c:	29400044 	addi	r5,r5,1
    1a80:	29fff91e 	bne	r5,r7,1a68 <strstr+0x450>
    1a84:	980f883a 	mov	r7,r19
    1a88:	8cc0152e 	bgeu	r17,r19,1ae0 <strstr+0x4c8>
    1a8c:	bc85883a 	add	r2,r23,r18
    1a90:	1705883a 	add	r2,r2,fp
    1a94:	b707883a 	add	r3,r22,fp
    1a98:	19400003 	ldbu	r5,0(r3)
    1a9c:	11000003 	ldbu	r4,0(r2)
    1aa0:	29000f1e 	bne	r5,r4,1ae0 <strstr+0x4c8>
    1aa4:	bcc5883a 	add	r2,r23,r19
    1aa8:	9085883a 	add	r2,r18,r2
    1aac:	9d87883a 	add	r3,r19,r22
    1ab0:	e00f883a 	mov	r7,fp
    1ab4:	19bfff84 	addi	r6,r3,-2
    1ab8:	117fff84 	addi	r5,r2,-2
    1abc:	89c0082e 	bgeu	r17,r7,1ae0 <strstr+0x4c8>
    1ac0:	30c00003 	ldbu	r3,0(r6)
    1ac4:	28800003 	ldbu	r2,0(r5)
    1ac8:	31bfffc4 	addi	r6,r6,-1
    1acc:	297fffc4 	addi	r5,r5,-1
    1ad0:	393fffc4 	addi	r4,r7,-1
    1ad4:	10c0021e 	bne	r2,r3,1ae0 <strstr+0x4c8>
    1ad8:	200f883a 	mov	r7,r4
    1adc:	89fff836 	bltu	r17,r7,1ac0 <strstr+0x4a8>
    1ae0:	88800044 	addi	r2,r17,1
    1ae4:	38805936 	bltu	r7,r2,1c4c <strstr+0x634>
    1ae8:	d8800017 	ldw	r2,0(sp)
    1aec:	a829883a 	mov	r20,r21
    1af0:	b8af883a 	add	r23,r23,r2
    1af4:	80a3c83a 	sub	r17,r16,r2
    1af8:	003fc606 	br	1a14 <strstr+0x3fc>
    1afc:	e00d883a 	mov	r6,fp
    1b00:	e540012e 	bgeu	fp,r21,1b08 <strstr+0x4f0>
    1b04:	a80d883a 	mov	r6,r21
    1b08:	34c0102e 	bgeu	r6,r19,1b4c <strstr+0x534>
    1b0c:	b985883a 	add	r2,r23,r6
    1b10:	908f883a 	add	r7,r18,r2
    1b14:	b189883a 	add	r4,r22,r6
    1b18:	20c00003 	ldbu	r3,0(r4)
    1b1c:	38800003 	ldbu	r2,0(r7)
    1b20:	1880331e 	bne	r3,r2,1bf0 <strstr+0x5d8>
    1b24:	200b883a 	mov	r5,r4
    1b28:	39000044 	addi	r4,r7,1
    1b2c:	00000506 	br	1b44 <strstr+0x52c>
    1b30:	28c00043 	ldbu	r3,1(r5)
    1b34:	20800003 	ldbu	r2,0(r4)
    1b38:	29400044 	addi	r5,r5,1
    1b3c:	21000044 	addi	r4,r4,1
    1b40:	10c02b1e 	bne	r2,r3,1bf0 <strstr+0x5d8>
    1b44:	31800044 	addi	r6,r6,1
    1b48:	34fff936 	bltu	r6,r19,1b30 <strstr+0x518>
    1b4c:	a80f883a 	mov	r7,r21
    1b50:	e540202e 	bgeu	fp,r21,1bd4 <strstr+0x5bc>
    1b54:	d8c10117 	ldw	r3,1028(sp)
    1b58:	bc85883a 	add	r2,r23,r18
    1b5c:	10c5883a 	add	r2,r2,r3
    1b60:	1d87883a 	add	r3,r3,r22
    1b64:	19400003 	ldbu	r5,0(r3)
    1b68:	11000003 	ldbu	r4,0(r2)
    1b6c:	2900191e 	bne	r5,r4,1bd4 <strstr+0x5bc>
    1b70:	bd45883a 	add	r2,r23,r21
    1b74:	d9c10117 	ldw	r7,1028(sp)
    1b78:	9085883a 	add	r2,r18,r2
    1b7c:	b547883a 	add	r3,r22,r21
    1b80:	19bfff84 	addi	r6,r3,-2
    1b84:	117fff84 	addi	r5,r2,-2
    1b88:	e1c0122e 	bgeu	fp,r7,1bd4 <strstr+0x5bc>
    1b8c:	30c00003 	ldbu	r3,0(r6)
    1b90:	28800003 	ldbu	r2,0(r5)
    1b94:	31bfffc4 	addi	r6,r6,-1
    1b98:	297fffc4 	addi	r5,r5,-1
    1b9c:	393fffc4 	addi	r4,r7,-1
    1ba0:	10c00c1e 	bne	r2,r3,1bd4 <strstr+0x5bc>
    1ba4:	200f883a 	mov	r7,r4
    1ba8:	003ff706 	br	1b88 <strstr+0x570>
    1bac:	2cc5c83a 	sub	r2,r5,r19
    1bb0:	10800044 	addi	r2,r2,1
    1bb4:	b8af883a 	add	r23,r23,r2
    1bb8:	0023883a 	mov	r17,zero
    1bbc:	a829883a 	mov	r20,r21
    1bc0:	003f9406 	br	1a14 <strstr+0x3fc>
    1bc4:	00800044 	movi	r2,1
    1bc8:	b8af883a 	add	r23,r23,r2
    1bcc:	8829883a 	mov	r20,r17
    1bd0:	003f3906 	br	18b8 <strstr+0x2a0>
    1bd4:	e0800044 	addi	r2,fp,1
    1bd8:	38801c36 	bltu	r7,r2,1c4c <strstr+0x634>
    1bdc:	d8800017 	ldw	r2,0(sp)
    1be0:	8829883a 	mov	r20,r17
    1be4:	b8af883a 	add	r23,r23,r2
    1be8:	80b9c83a 	sub	fp,r16,r2
    1bec:	003f7006 	br	19b0 <strstr+0x398>
    1bf0:	3545c83a 	sub	r2,r6,r21
    1bf4:	10800044 	addi	r2,r2,1
    1bf8:	b8af883a 	add	r23,r23,r2
    1bfc:	0039883a 	mov	fp,zero
    1c00:	8829883a 	mov	r20,r17
    1c04:	003f6a06 	br	19b0 <strstr+0x398>
    1c08:	24c5c83a 	sub	r2,r4,r19
    1c0c:	10800044 	addi	r2,r2,1
    1c10:	a8ab883a 	add	r21,r21,r2
    1c14:	8829883a 	mov	r20,r17
    1c18:	003ecd06 	br	1750 <strstr+0x138>
    1c1c:	2545c83a 	sub	r2,r4,r21
    1c20:	10800044 	addi	r2,r2,1
    1c24:	b8af883a 	add	r23,r23,r2
    1c28:	003fe806 	br	1bcc <strstr+0x5b4>
    1c2c:	d8800017 	ldw	r2,0(sp)
    1c30:	8829883a 	mov	r20,r17
    1c34:	a8ab883a 	add	r21,r21,r2
    1c38:	003ec506 	br	1750 <strstr+0x138>
    1c3c:	d8800017 	ldw	r2,0(sp)
    1c40:	8829883a 	mov	r20,r17
    1c44:	b8af883a 	add	r23,r23,r2
    1c48:	003f1b06 	br	18b8 <strstr+0x2a0>
    1c4c:	95e5883a 	add	r18,r18,r23
    1c50:	003e9306 	br	16a0 <strstr+0x88>
    1c54:	00800044 	movi	r2,1
    1c58:	a8ab883a 	add	r21,r21,r2
    1c5c:	003fed06 	br	1c14 <strstr+0x5fc>
    1c60:	ac91883a 	add	r8,r21,r18
    1c64:	4025883a 	mov	r18,r8
    1c68:	003e8d06 	br	16a0 <strstr+0x88>
    1c6c:	bc91883a 	add	r8,r23,r18
    1c70:	4025883a 	mov	r18,r8
    1c74:	003e8a06 	br	16a0 <strstr+0x88>

00001c78 <match>:
    1c78:	21800017 	ldw	r6,0(r4)
    1c7c:	01c01004 	movi	r7,64
    1c80:	02001684 	movi	r8,90
    1c84:	28800007 	ldb	r2,0(r5)
    1c88:	29400044 	addi	r5,r5,1
    1c8c:	10000826 	beq	r2,zero,1cb0 <match+0x38>
    1c90:	31800044 	addi	r6,r6,1
    1c94:	30c00007 	ldb	r3,0(r6)
    1c98:	38c0020e 	bge	r7,r3,1ca4 <match+0x2c>
    1c9c:	40c00116 	blt	r8,r3,1ca4 <match+0x2c>
    1ca0:	18c00804 	addi	r3,r3,32
    1ca4:	18bff726 	beq	r3,r2,1c84 <match+0xc>
    1ca8:	0005883a 	mov	r2,zero
    1cac:	f800283a 	ret
    1cb0:	30800044 	addi	r2,r6,1
    1cb4:	20800015 	stw	r2,0(r4)
    1cb8:	00800044 	movi	r2,1
    1cbc:	f800283a 	ret

00001cc0 <_strtod_r>:
    1cc0:	deffd504 	addi	sp,sp,-172
    1cc4:	df002915 	stw	fp,164(sp)
    1cc8:	dd402615 	stw	r21,152(sp)
    1ccc:	dd002515 	stw	r20,148(sp)
    1cd0:	dfc02a15 	stw	ra,168(sp)
    1cd4:	ddc02815 	stw	r23,160(sp)
    1cd8:	dd802715 	stw	r22,156(sp)
    1cdc:	dcc02415 	stw	r19,144(sp)
    1ce0:	dc802315 	stw	r18,140(sp)
    1ce4:	dc402215 	stw	r17,136(sp)
    1ce8:	dc002115 	stw	r16,132(sp)
    1cec:	2829883a 	mov	r20,r5
    1cf0:	202b883a 	mov	r21,r4
    1cf4:	d9801d15 	stw	r6,116(sp)
    1cf8:	d8000915 	stw	zero,36(sp)
    1cfc:	d8000a15 	stw	zero,40(sp)
    1d00:	d9400415 	stw	r5,16(sp)
    1d04:	df000904 	addi	fp,sp,36
    1d08:	dc000417 	ldw	r16,16(sp)
    1d0c:	00800b44 	movi	r2,45
    1d10:	80c00003 	ldbu	r3,0(r16)
    1d14:	10c03536 	bltu	r2,r3,1dec <_strtod_r+0x12c>
    1d18:	18c5883a 	add	r2,r3,r3
    1d1c:	1085883a 	add	r2,r2,r2
    1d20:	00c00034 	movhi	r3,0
    1d24:	18c74d04 	addi	r3,r3,7476
    1d28:	10c5883a 	add	r2,r2,r3
    1d2c:	11000017 	ldw	r4,0(r2)
    1d30:	2000683a 	jmp	r4
    1d34:	00001f6c 	andhi	zero,zero,125
    1d38:	00001dec 	andhi	zero,zero,119
    1d3c:	00001dec 	andhi	zero,zero,119
    1d40:	00001dec 	andhi	zero,zero,119
    1d44:	00001dec 	andhi	zero,zero,119
    1d48:	00001dec 	andhi	zero,zero,119
    1d4c:	00001dec 	andhi	zero,zero,119
    1d50:	00001dec 	andhi	zero,zero,119
    1d54:	00001dec 	andhi	zero,zero,119
    1d58:	000022b4 	movhi	zero,138
    1d5c:	000022b4 	movhi	zero,138
    1d60:	000022b4 	movhi	zero,138
    1d64:	000022b4 	movhi	zero,138
    1d68:	000022b4 	movhi	zero,138
    1d6c:	00001dec 	andhi	zero,zero,119
    1d70:	00001dec 	andhi	zero,zero,119
    1d74:	00001dec 	andhi	zero,zero,119
    1d78:	00001dec 	andhi	zero,zero,119
    1d7c:	00001dec 	andhi	zero,zero,119
    1d80:	00001dec 	andhi	zero,zero,119
    1d84:	00001dec 	andhi	zero,zero,119
    1d88:	00001dec 	andhi	zero,zero,119
    1d8c:	00001dec 	andhi	zero,zero,119
    1d90:	00001dec 	andhi	zero,zero,119
    1d94:	00001dec 	andhi	zero,zero,119
    1d98:	00001dec 	andhi	zero,zero,119
    1d9c:	00001dec 	andhi	zero,zero,119
    1da0:	00001dec 	andhi	zero,zero,119
    1da4:	00001dec 	andhi	zero,zero,119
    1da8:	00001dec 	andhi	zero,zero,119
    1dac:	00001dec 	andhi	zero,zero,119
    1db0:	00001dec 	andhi	zero,zero,119
    1db4:	000022b4 	movhi	zero,138
    1db8:	00001dec 	andhi	zero,zero,119
    1dbc:	00001dec 	andhi	zero,zero,119
    1dc0:	00001dec 	andhi	zero,zero,119
    1dc4:	00001dec 	andhi	zero,zero,119
    1dc8:	00001dec 	andhi	zero,zero,119
    1dcc:	00001dec 	andhi	zero,zero,119
    1dd0:	00001dec 	andhi	zero,zero,119
    1dd4:	00001dec 	andhi	zero,zero,119
    1dd8:	00001dec 	andhi	zero,zero,119
    1ddc:	00001dec 	andhi	zero,zero,119
    1de0:	00002294 	movui	zero,138
    1de4:	00001dec 	andhi	zero,zero,119
    1de8:	000022c0 	call	22c <main+0x64>
    1dec:	d8001515 	stw	zero,84(sp)
    1df0:	80c00007 	ldb	r3,0(r16)
    1df4:	00800c04 	movi	r2,48
    1df8:	1880e926 	beq	r3,r2,21a0 <_strtod_r+0x4e0>
    1dfc:	d8001615 	stw	zero,88(sp)
    1e00:	dc001415 	stw	r16,80(sp)
    1e04:	84400007 	ldb	r17,0(r16)
    1e08:	00800bc4 	movi	r2,47
    1e0c:	1443760e 	bge	r2,r17,2be8 <_strtod_r+0xf28>
    1e10:	00800e44 	movi	r2,57
    1e14:	14437416 	blt	r2,r17,2be8 <_strtod_r+0xf28>
    1e18:	8025883a 	mov	r18,r16
    1e1c:	0027883a 	mov	r19,zero
    1e20:	d8001215 	stw	zero,72(sp)
    1e24:	d8001115 	stw	zero,68(sp)
    1e28:	00000f06 	br	1e68 <_strtod_r+0x1a8>
    1e2c:	d9001217 	ldw	r4,72(sp)
    1e30:	01400284 	movi	r5,10
    1e34:	000d0e40 	call	d0e4 <__mulsi3>
    1e38:	1445883a 	add	r2,r2,r17
    1e3c:	10bff404 	addi	r2,r2,-48
    1e40:	d8801215 	stw	r2,72(sp)
    1e44:	94000044 	addi	r16,r18,1
    1e48:	dc000415 	stw	r16,16(sp)
    1e4c:	84400007 	ldb	r17,0(r16)
    1e50:	00800bc4 	movi	r2,47
    1e54:	9cc00044 	addi	r19,r19,1
    1e58:	8025883a 	mov	r18,r16
    1e5c:	1440130e 	bge	r2,r17,1eac <_strtod_r+0x1ec>
    1e60:	00800e44 	movi	r2,57
    1e64:	14401116 	blt	r2,r17,1eac <_strtod_r+0x1ec>
    1e68:	00800204 	movi	r2,8
    1e6c:	14ffef0e 	bge	r2,r19,1e2c <_strtod_r+0x16c>
    1e70:	008003c4 	movi	r2,15
    1e74:	14fff316 	blt	r2,r19,1e44 <_strtod_r+0x184>
    1e78:	d9001117 	ldw	r4,68(sp)
    1e7c:	01400284 	movi	r5,10
    1e80:	94000044 	addi	r16,r18,1
    1e84:	000d0e40 	call	d0e4 <__mulsi3>
    1e88:	1445883a 	add	r2,r2,r17
    1e8c:	10bff404 	addi	r2,r2,-48
    1e90:	d8801115 	stw	r2,68(sp)
    1e94:	dc000415 	stw	r16,16(sp)
    1e98:	84400007 	ldb	r17,0(r16)
    1e9c:	00800bc4 	movi	r2,47
    1ea0:	9cc00044 	addi	r19,r19,1
    1ea4:	8025883a 	mov	r18,r16
    1ea8:	147fed16 	blt	r2,r17,1e60 <_strtod_r+0x1a0>
    1eac:	00800b84 	movi	r2,46
    1eb0:	8880c926 	beq	r17,r2,21d8 <_strtod_r+0x518>
    1eb4:	dcc01815 	stw	r19,96(sp)
    1eb8:	d8001b15 	stw	zero,108(sp)
    1ebc:	d8001715 	stw	zero,92(sp)
    1ec0:	000d883a 	mov	r6,zero
    1ec4:	00801944 	movi	r2,101
    1ec8:	88802126 	beq	r17,r2,1f50 <_strtod_r+0x290>
    1ecc:	00801144 	movi	r2,69
    1ed0:	88801f26 	beq	r17,r2,1f50 <_strtod_r+0x290>
    1ed4:	d9001817 	ldw	r4,96(sp)
    1ed8:	2024c03a 	cmpne	r18,r4,zero
    1edc:	0009883a 	mov	r4,zero
    1ee0:	9000651e 	bne	r18,zero,2078 <_strtod_r+0x3b8>
    1ee4:	3000c926 	beq	r6,zero,220c <_strtod_r+0x54c>
    1ee8:	d8801d17 	ldw	r2,116(sp)
    1eec:	10000326 	beq	r2,zero,1efc <_strtod_r+0x23c>
    1ef0:	d8800417 	ldw	r2,16(sp)
    1ef4:	d8c01d17 	ldw	r3,116(sp)
    1ef8:	18800015 	stw	r2,0(r3)
    1efc:	d9001517 	ldw	r4,84(sp)
    1f00:	2005003a 	cmpeq	r2,r4,zero
    1f04:	10001c1e 	bne	r2,zero,1f78 <_strtod_r+0x2b8>
    1f08:	e0800017 	ldw	r2,0(fp)
    1f0c:	e0c00117 	ldw	r3,4(fp)
    1f10:	1009883a 	mov	r4,r2
    1f14:	1960003c 	xorhi	r5,r3,32768
    1f18:	2005883a 	mov	r2,r4
    1f1c:	2807883a 	mov	r3,r5
    1f20:	dfc02a17 	ldw	ra,168(sp)
    1f24:	df002917 	ldw	fp,164(sp)
    1f28:	ddc02817 	ldw	r23,160(sp)
    1f2c:	dd802717 	ldw	r22,156(sp)
    1f30:	dd402617 	ldw	r21,152(sp)
    1f34:	dd002517 	ldw	r20,148(sp)
    1f38:	dcc02417 	ldw	r19,144(sp)
    1f3c:	dc802317 	ldw	r18,140(sp)
    1f40:	dc402217 	ldw	r17,136(sp)
    1f44:	dc002117 	ldw	r16,132(sp)
    1f48:	dec02b04 	addi	sp,sp,172
    1f4c:	f800283a 	ret
    1f50:	d8801817 	ldw	r2,96(sp)
    1f54:	1024c03a 	cmpne	r18,r2,zero
    1f58:	90000a1e 	bne	r18,zero,1f84 <_strtod_r+0x2c4>
    1f5c:	3000091e 	bne	r6,zero,1f84 <_strtod_r+0x2c4>
    1f60:	d8c01617 	ldw	r3,88(sp)
    1f64:	1805003a 	cmpeq	r2,r3,zero
    1f68:	10000626 	beq	r2,zero,1f84 <_strtod_r+0x2c4>
    1f6c:	d8001515 	stw	zero,84(sp)
    1f70:	dd000415 	stw	r20,16(sp)
    1f74:	003fdc06 	br	1ee8 <_strtod_r+0x228>
    1f78:	e1000017 	ldw	r4,0(fp)
    1f7c:	e1400117 	ldw	r5,4(fp)
    1f80:	003fe506 	br	1f18 <_strtod_r+0x258>
    1f84:	dd000417 	ldw	r20,16(sp)
    1f88:	00800ac4 	movi	r2,43
    1f8c:	a4000044 	addi	r16,r20,1
    1f90:	dc000415 	stw	r16,16(sp)
    1f94:	a0c00047 	ldb	r3,1(r20)
    1f98:	8009883a 	mov	r4,r16
    1f9c:	1880cb26 	beq	r3,r2,22cc <_strtod_r+0x60c>
    1fa0:	00800b44 	movi	r2,45
    1fa4:	18838326 	beq	r3,r2,2db4 <_strtod_r+0x10f4>
    1fa8:	1823883a 	mov	r17,r3
    1fac:	88fff404 	addi	r3,r17,-48
    1fb0:	00800244 	movi	r2,9
    1fb4:	d8001915 	stw	zero,100(sp)
    1fb8:	10c0cb36 	bltu	r2,r3,22e8 <_strtod_r+0x628>
    1fbc:	00800c04 	movi	r2,48
    1fc0:	8880061e 	bne	r17,r2,1fdc <_strtod_r+0x31c>
    1fc4:	dc000417 	ldw	r16,16(sp)
    1fc8:	8805883a 	mov	r2,r17
    1fcc:	84000044 	addi	r16,r16,1
    1fd0:	dc000415 	stw	r16,16(sp)
    1fd4:	84400007 	ldb	r17,0(r16)
    1fd8:	88bffc26 	beq	r17,r2,1fcc <_strtod_r+0x30c>
    1fdc:	88fff3c4 	addi	r3,r17,-49
    1fe0:	00800204 	movi	r2,8
    1fe4:	10ffbd36 	bltu	r2,r3,1edc <_strtod_r+0x21c>
    1fe8:	dc000417 	ldw	r16,16(sp)
    1fec:	893ff404 	addi	r4,r17,-48
    1ff0:	00c00bc4 	movi	r3,47
    1ff4:	dc001315 	stw	r16,76(sp)
    1ff8:	84000044 	addi	r16,r16,1
    1ffc:	dc000415 	stw	r16,16(sp)
    2000:	84400007 	ldb	r17,0(r16)
    2004:	1c40100e 	bge	r3,r17,2048 <_strtod_r+0x388>
    2008:	00800e44 	movi	r2,57
    200c:	14400e16 	blt	r2,r17,2048 <_strtod_r+0x388>
    2010:	182f883a 	mov	r23,r3
    2014:	102d883a 	mov	r22,r2
    2018:	00000106 	br	2020 <_strtod_r+0x360>
    201c:	b4400a16 	blt	r22,r17,2048 <_strtod_r+0x388>
    2020:	84000044 	addi	r16,r16,1
    2024:	01400284 	movi	r5,10
    2028:	d9802015 	stw	r6,128(sp)
    202c:	000d0e40 	call	d0e4 <__mulsi3>
    2030:	dc000415 	stw	r16,16(sp)
    2034:	8885883a 	add	r2,r17,r2
    2038:	84400007 	ldb	r17,0(r16)
    203c:	113ff404 	addi	r4,r2,-48
    2040:	d9802017 	ldw	r6,128(sp)
    2044:	bc7ff516 	blt	r23,r17,201c <_strtod_r+0x35c>
    2048:	d8801317 	ldw	r2,76(sp)
    204c:	8087c83a 	sub	r3,r16,r2
    2050:	00800204 	movi	r2,8
    2054:	10c2ff16 	blt	r2,r3,2c54 <_strtod_r+0xf94>
    2058:	009387c4 	movi	r2,19999
    205c:	1100010e 	bge	r2,r4,2064 <_strtod_r+0x3a4>
    2060:	1009883a 	mov	r4,r2
    2064:	d8c01917 	ldw	r3,100(sp)
    2068:	1805003a 	cmpeq	r2,r3,zero
    206c:	103f9c1e 	bne	r2,zero,1ee0 <_strtod_r+0x220>
    2070:	0109c83a 	sub	r4,zero,r4
    2074:	903f9b26 	beq	r18,zero,1ee4 <_strtod_r+0x224>
    2078:	d8801717 	ldw	r2,92(sp)
    207c:	2089c83a 	sub	r4,r4,r2
    2080:	d9000f15 	stw	r4,60(sp)
    2084:	9800811e 	bne	r19,zero,228c <_strtod_r+0x5cc>
    2088:	dd001817 	ldw	r20,96(sp)
    208c:	dc801817 	ldw	r18,96(sp)
    2090:	00800404 	movi	r2,16
    2094:	1480010e 	bge	r2,r18,209c <_strtod_r+0x3dc>
    2098:	1025883a 	mov	r18,r2
    209c:	d9001217 	ldw	r4,72(sp)
    20a0:	000ce040 	call	ce04 <__floatunsidf>
    20a4:	100f883a 	mov	r7,r2
    20a8:	e0800015 	stw	r2,0(fp)
    20ac:	00800244 	movi	r2,9
    20b0:	e0c00115 	stw	r3,4(fp)
    20b4:	1480160e 	bge	r2,r18,2110 <_strtod_r+0x450>
    20b8:	900c90fa 	slli	r6,r18,3
    20bc:	01000074 	movhi	r4,1
    20c0:	213c1904 	addi	r4,r4,-3996
    20c4:	180b883a 	mov	r5,r3
    20c8:	310d883a 	add	r6,r6,r4
    20cc:	30ffef17 	ldw	r3,-68(r6)
    20d0:	30bfee17 	ldw	r2,-72(r6)
    20d4:	3809883a 	mov	r4,r7
    20d8:	180f883a 	mov	r7,r3
    20dc:	100d883a 	mov	r6,r2
    20e0:	000c2e80 	call	c2e8 <__muldf3>
    20e4:	d9001117 	ldw	r4,68(sp)
    20e8:	1021883a 	mov	r16,r2
    20ec:	1823883a 	mov	r17,r3
    20f0:	000ce040 	call	ce04 <__floatunsidf>
    20f4:	880b883a 	mov	r5,r17
    20f8:	180f883a 	mov	r7,r3
    20fc:	8009883a 	mov	r4,r16
    2100:	100d883a 	mov	r6,r2
    2104:	000c2740 	call	c274 <__adddf3>
    2108:	e0c00115 	stw	r3,4(fp)
    210c:	e0800015 	stw	r2,0(fp)
    2110:	d8c01817 	ldw	r3,96(sp)
    2114:	010003c4 	movi	r4,15
    2118:	20c09e16 	blt	r4,r3,2394 <_strtod_r+0x6d4>
    211c:	d8800f17 	ldw	r2,60(sp)
    2120:	103f7126 	beq	r2,zero,1ee8 <_strtod_r+0x228>
    2124:	0083d90e 	bge	zero,r2,308c <_strtod_r+0x13cc>
    2128:	d8c00f17 	ldw	r3,60(sp)
    212c:	00800584 	movi	r2,22
    2130:	10c2ca0e 	bge	r2,r3,2c5c <_strtod_r+0xf9c>
    2134:	d8801817 	ldw	r2,96(sp)
    2138:	d8c00f17 	ldw	r3,60(sp)
    213c:	20a3c83a 	sub	r17,r4,r2
    2140:	88800584 	addi	r2,r17,22
    2144:	10c09316 	blt	r2,r3,2394 <_strtod_r+0x6d4>
    2148:	880890fa 	slli	r4,r17,3
    214c:	04000074 	movhi	r16,1
    2150:	843c1904 	addi	r16,r16,-3996
    2154:	e0800017 	ldw	r2,0(fp)
    2158:	2409883a 	add	r4,r4,r16
    215c:	22000017 	ldw	r8,0(r4)
    2160:	22400117 	ldw	r9,4(r4)
    2164:	e0c00117 	ldw	r3,4(fp)
    2168:	1009883a 	mov	r4,r2
    216c:	480f883a 	mov	r7,r9
    2170:	180b883a 	mov	r5,r3
    2174:	400d883a 	mov	r6,r8
    2178:	000c2e80 	call	c2e8 <__muldf3>
    217c:	d9000f17 	ldw	r4,60(sp)
    2180:	180b883a 	mov	r5,r3
    2184:	2455c83a 	sub	r10,r4,r17
    2188:	501490fa 	slli	r10,r10,3
    218c:	1009883a 	mov	r4,r2
    2190:	5415883a 	add	r10,r10,r16
    2194:	52000017 	ldw	r8,0(r10)
    2198:	52400117 	ldw	r9,4(r10)
    219c:	0002b906 	br	2c84 <_strtod_r+0xfc4>
    21a0:	80c00047 	ldb	r3,1(r16)
    21a4:	00801604 	movi	r2,88
    21a8:	18805226 	beq	r3,r2,22f4 <_strtod_r+0x634>
    21ac:	00801e04 	movi	r2,120
    21b0:	18805026 	beq	r3,r2,22f4 <_strtod_r+0x634>
    21b4:	84000044 	addi	r16,r16,1
    21b8:	dc000415 	stw	r16,16(sp)
    21bc:	80c00007 	ldb	r3,0(r16)
    21c0:	00800c04 	movi	r2,48
    21c4:	18bffb26 	beq	r3,r2,21b4 <_strtod_r+0x4f4>
    21c8:	183f4726 	beq	r3,zero,1ee8 <_strtod_r+0x228>
    21cc:	01000044 	movi	r4,1
    21d0:	d9001615 	stw	r4,88(sp)
    21d4:	003f0a06 	br	1e00 <_strtod_r+0x140>
    21d8:	84000044 	addi	r16,r16,1
    21dc:	dc000415 	stw	r16,16(sp)
    21e0:	94400047 	ldb	r17,1(r18)
    21e4:	9800ba26 	beq	r19,zero,24d0 <_strtod_r+0x810>
    21e8:	dcc01815 	stw	r19,96(sp)
    21ec:	d8001715 	stw	zero,92(sp)
    21f0:	000d883a 	mov	r6,zero
    21f4:	8dbff404 	addi	r22,r17,-48
    21f8:	00800244 	movi	r2,9
    21fc:	15826e2e 	bgeu	r2,r22,2bb8 <_strtod_r+0xef8>
    2200:	01000044 	movi	r4,1
    2204:	d9001b15 	stw	r4,108(sp)
    2208:	003f2e06 	br	1ec4 <_strtod_r+0x204>
    220c:	d8c01617 	ldw	r3,88(sp)
    2210:	1804c03a 	cmpne	r2,r3,zero
    2214:	103f341e 	bne	r2,zero,1ee8 <_strtod_r+0x228>
    2218:	d9001b17 	ldw	r4,108(sp)
    221c:	2004c03a 	cmpne	r2,r4,zero
    2220:	103f521e 	bne	r2,zero,1f6c <_strtod_r+0x2ac>
    2224:	00801384 	movi	r2,78
    2228:	8883b526 	beq	r17,r2,3100 <_strtod_r+0x1440>
    222c:	1443b016 	blt	r2,r17,30f0 <_strtod_r+0x1430>
    2230:	00801244 	movi	r2,73
    2234:	88bf4d1e 	bne	r17,r2,1f6c <_strtod_r+0x2ac>
    2238:	dc000404 	addi	r16,sp,16
    223c:	8009883a 	mov	r4,r16
    2240:	01400074 	movhi	r5,1
    2244:	297bcf04 	addi	r5,r5,-4292
    2248:	0001c780 	call	1c78 <match>
    224c:	103f4726 	beq	r2,zero,1f6c <_strtod_r+0x2ac>
    2250:	d8800417 	ldw	r2,16(sp)
    2254:	8009883a 	mov	r4,r16
    2258:	01400074 	movhi	r5,1
    225c:	297bd004 	addi	r5,r5,-4288
    2260:	143fffc4 	addi	r16,r2,-1
    2264:	dc000415 	stw	r16,16(sp)
    2268:	0001c780 	call	1c78 <match>
    226c:	1000031e 	bne	r2,zero,227c <_strtod_r+0x5bc>
    2270:	d8800417 	ldw	r2,16(sp)
    2274:	14000044 	addi	r16,r2,1
    2278:	dc000415 	stw	r16,16(sp)
    227c:	019ffc34 	movhi	r6,32752
    2280:	e1800115 	stw	r6,4(fp)
    2284:	e0000015 	stw	zero,0(fp)
    2288:	003f1706 	br	1ee8 <_strtod_r+0x228>
    228c:	9829883a 	mov	r20,r19
    2290:	003f7e06 	br	208c <_strtod_r+0x3cc>
    2294:	d8001515 	stw	zero,84(sp)
    2298:	84000044 	addi	r16,r16,1
    229c:	dc000415 	stw	r16,16(sp)
    22a0:	80800007 	ldb	r2,0(r16)
    22a4:	103ed21e 	bne	r2,zero,1df0 <_strtod_r+0x130>
    22a8:	d8001515 	stw	zero,84(sp)
    22ac:	dd000415 	stw	r20,16(sp)
    22b0:	003f0d06 	br	1ee8 <_strtod_r+0x228>
    22b4:	84000044 	addi	r16,r16,1
    22b8:	dc000415 	stw	r16,16(sp)
    22bc:	003e9206 	br	1d08 <_strtod_r+0x48>
    22c0:	00800044 	movi	r2,1
    22c4:	d8801515 	stw	r2,84(sp)
    22c8:	003ff306 	br	2298 <_strtod_r+0x5d8>
    22cc:	d8001915 	stw	zero,100(sp)
    22d0:	84000044 	addi	r16,r16,1
    22d4:	dc000415 	stw	r16,16(sp)
    22d8:	24400047 	ldb	r17,1(r4)
    22dc:	00800244 	movi	r2,9
    22e0:	88fff404 	addi	r3,r17,-48
    22e4:	10ff352e 	bgeu	r2,r3,1fbc <_strtod_r+0x2fc>
    22e8:	0009883a 	mov	r4,zero
    22ec:	dd000415 	stw	r20,16(sp)
    22f0:	003efb06 	br	1ee0 <_strtod_r+0x220>
    22f4:	d8c01517 	ldw	r3,84(sp)
    22f8:	04400074 	movhi	r17,1
    22fc:	8c7dc204 	addi	r17,r17,-2296
    2300:	d8800504 	addi	r2,sp,20
    2304:	a809883a 	mov	r4,r21
    2308:	d9400404 	addi	r5,sp,16
    230c:	880d883a 	mov	r6,r17
    2310:	d9c00604 	addi	r7,sp,24
    2314:	d8800015 	stw	r2,0(sp)
    2318:	d8c00115 	stw	r3,4(sp)
    231c:	0007cfc0 	call	7cfc <__gethex>
    2320:	140001cc 	andi	r16,r2,7
    2324:	1025883a 	mov	r18,r2
    2328:	803eef26 	beq	r16,zero,1ee8 <_strtod_r+0x228>
    232c:	04c00184 	movi	r19,6
    2330:	84ff0e26 	beq	r16,r19,1f6c <_strtod_r+0x2ac>
    2334:	d9800517 	ldw	r6,20(sp)
    2338:	30000626 	beq	r6,zero,2354 <_strtod_r+0x694>
    233c:	89400017 	ldw	r5,0(r17)
    2340:	d9000d04 	addi	r4,sp,52
    2344:	00091f40 	call	91f4 <__copybits>
    2348:	d9400517 	ldw	r5,20(sp)
    234c:	a809883a 	mov	r4,r21
    2350:	0008d540 	call	8d54 <_Bfree>
    2354:	d9400617 	ldw	r5,24(sp)
    2358:	9c025436 	bltu	r19,r16,2cac <_strtod_r+0xfec>
    235c:	8405883a 	add	r2,r16,r16
    2360:	1085883a 	add	r2,r2,r2
    2364:	00c00034 	movhi	r3,0
    2368:	18c8de04 	addi	r3,r3,9080
    236c:	10c5883a 	add	r2,r2,r3
    2370:	11000017 	ldw	r4,0(r2)
    2374:	2000683a 	jmp	r4
    2378:	00002cec 	andhi	zero,zero,179
    237c:	00002cf8 	rdprs	zero,zero,179
    2380:	00002c9c 	xori	zero,zero,178
    2384:	00002cc4 	movi	zero,179
    2388:	00002cd4 	movui	zero,179
    238c:	00002cf8 	rdprs	zero,zero,179
    2390:	00002cec 	andhi	zero,zero,179
    2394:	d9001817 	ldw	r4,96(sp)
    2398:	d8c00f17 	ldw	r3,60(sp)
    239c:	2485c83a 	sub	r2,r4,r18
    23a0:	18a1883a 	add	r16,r3,r2
    23a4:	0402e80e 	bge	zero,r16,2f48 <_strtod_r+0x1288>
    23a8:	814003cc 	andi	r5,r16,15
    23ac:	28000f26 	beq	r5,zero,23ec <_strtod_r+0x72c>
    23b0:	280a90fa 	slli	r5,r5,3
    23b4:	01000074 	movhi	r4,1
    23b8:	213c1904 	addi	r4,r4,-3996
    23bc:	e0800017 	ldw	r2,0(fp)
    23c0:	290b883a 	add	r5,r5,r4
    23c4:	2a000017 	ldw	r8,0(r5)
    23c8:	e0c00117 	ldw	r3,4(fp)
    23cc:	2a400117 	ldw	r9,4(r5)
    23d0:	1009883a 	mov	r4,r2
    23d4:	180b883a 	mov	r5,r3
    23d8:	480f883a 	mov	r7,r9
    23dc:	400d883a 	mov	r6,r8
    23e0:	000c2e80 	call	c2e8 <__muldf3>
    23e4:	e0c00115 	stw	r3,4(fp)
    23e8:	e0800015 	stw	r2,0(fp)
    23ec:	00bffc04 	movi	r2,-16
    23f0:	808c703a 	and	r6,r16,r2
    23f4:	30006726 	beq	r6,zero,2594 <_strtod_r+0x8d4>
    23f8:	00804d04 	movi	r2,308
    23fc:	11820f16 	blt	r2,r6,2c3c <_strtod_r+0xf7c>
    2400:	3021d13a 	srai	r16,r6,4
    2404:	00800044 	movi	r2,1
    2408:	14037f0e 	bge	r2,r16,3208 <_strtod_r+0x1548>
    240c:	05800074 	movhi	r22,1
    2410:	b5bc4b04 	addi	r22,r22,-3796
    2414:	1027883a 	mov	r19,r2
    2418:	0025883a 	mov	r18,zero
    241c:	b023883a 	mov	r17,r22
    2420:	8080004c 	andi	r2,r16,1
    2424:	1005003a 	cmpeq	r2,r2,zero
    2428:	1000091e 	bne	r2,zero,2450 <_strtod_r+0x790>
    242c:	e0800017 	ldw	r2,0(fp)
    2430:	e0c00117 	ldw	r3,4(fp)
    2434:	89800017 	ldw	r6,0(r17)
    2438:	89c00117 	ldw	r7,4(r17)
    243c:	180b883a 	mov	r5,r3
    2440:	1009883a 	mov	r4,r2
    2444:	000c2e80 	call	c2e8 <__muldf3>
    2448:	e0c00115 	stw	r3,4(fp)
    244c:	e0800015 	stw	r2,0(fp)
    2450:	8021d07a 	srai	r16,r16,1
    2454:	94800044 	addi	r18,r18,1
    2458:	8c400204 	addi	r17,r17,8
    245c:	9c3ff016 	blt	r19,r16,2420 <_strtod_r+0x760>
    2460:	900e90fa 	slli	r7,r18,3
    2464:	e2000117 	ldw	r8,4(fp)
    2468:	e1000017 	ldw	r4,0(fp)
    246c:	3d8f883a 	add	r7,r7,r22
    2470:	38800017 	ldw	r2,0(r7)
    2474:	38c00117 	ldw	r3,4(r7)
    2478:	01bf2c34 	movhi	r6,64688
    247c:	418d883a 	add	r6,r8,r6
    2480:	300b883a 	mov	r5,r6
    2484:	180f883a 	mov	r7,r3
    2488:	100d883a 	mov	r6,r2
    248c:	000c2e80 	call	c2e8 <__muldf3>
    2490:	1009883a 	mov	r4,r2
    2494:	180b883a 	mov	r5,r3
    2498:	199ffc2c 	andhi	r6,r3,32752
    249c:	009f2834 	movhi	r2,31904
    24a0:	e1000015 	stw	r4,0(fp)
    24a4:	e1400115 	stw	r5,4(fp)
    24a8:	1181e436 	bltu	r2,r6,2c3c <_strtod_r+0xf7c>
    24ac:	009f2434 	movhi	r2,31888
    24b0:	11833f2e 	bgeu	r2,r6,31b0 <_strtod_r+0x14f0>
    24b4:	d8001c15 	stw	zero,112(sp)
    24b8:	019ffc34 	movhi	r6,32752
    24bc:	31bfffc4 	addi	r6,r6,-1
    24c0:	01ffffc4 	movi	r7,-1
    24c4:	e1800115 	stw	r6,4(fp)
    24c8:	e1c00015 	stw	r7,0(fp)
    24cc:	00003206 	br	2598 <_strtod_r+0x8d8>
    24d0:	00800c04 	movi	r2,48
    24d4:	8883221e 	bne	r17,r2,3160 <_strtod_r+0x14a0>
    24d8:	8805883a 	mov	r2,r17
    24dc:	000d883a 	mov	r6,zero
    24e0:	84000044 	addi	r16,r16,1
    24e4:	dc000415 	stw	r16,16(sp)
    24e8:	84400007 	ldb	r17,0(r16)
    24ec:	31800044 	addi	r6,r6,1
    24f0:	88bffb26 	beq	r17,r2,24e0 <_strtod_r+0x820>
    24f4:	88fff3c4 	addi	r3,r17,-49
    24f8:	00800204 	movi	r2,8
    24fc:	10c1ca36 	bltu	r2,r3,2c28 <_strtod_r+0xf68>
    2500:	d8c00417 	ldw	r3,16(sp)
    2504:	d9801715 	stw	r6,92(sp)
    2508:	8dbff404 	addi	r22,r17,-48
    250c:	d8c01415 	stw	r3,80(sp)
    2510:	1821883a 	mov	r16,r3
    2514:	d8001815 	stw	zero,96(sp)
    2518:	01800044 	movi	r6,1
    251c:	b0023526 	beq	r22,zero,2df4 <_strtod_r+0x1134>
    2520:	d9001717 	ldw	r4,92(sp)
    2524:	00800044 	movi	r2,1
    2528:	2189883a 	add	r4,r4,r6
    252c:	d9001715 	stw	r4,92(sp)
    2530:	1183390e 	bge	r2,r6,3218 <_strtod_r+0x1558>
    2534:	dc401817 	ldw	r17,96(sp)
    2538:	1025883a 	mov	r18,r2
    253c:	05c00204 	movi	r23,8
    2540:	00000806 	br	2564 <_strtod_r+0x8a4>
    2544:	d9001217 	ldw	r4,72(sp)
    2548:	01400284 	movi	r5,10
    254c:	d9802015 	stw	r6,128(sp)
    2550:	000d0e40 	call	d0e4 <__mulsi3>
    2554:	d9802017 	ldw	r6,128(sp)
    2558:	d8801215 	stw	r2,72(sp)
    255c:	94800044 	addi	r18,r18,1
    2560:	91821726 	beq	r18,r6,2dc0 <_strtod_r+0x1100>
    2564:	8c400044 	addi	r17,r17,1
    2568:	88bfffc4 	addi	r2,r17,-1
    256c:	b8bff50e 	bge	r23,r2,2544 <_strtod_r+0x884>
    2570:	00800404 	movi	r2,16
    2574:	147ff916 	blt	r2,r17,255c <_strtod_r+0x89c>
    2578:	d9001117 	ldw	r4,68(sp)
    257c:	01400284 	movi	r5,10
    2580:	d9802015 	stw	r6,128(sp)
    2584:	000d0e40 	call	d0e4 <__mulsi3>
    2588:	d9802017 	ldw	r6,128(sp)
    258c:	d8801115 	stw	r2,68(sp)
    2590:	003ff206 	br	255c <_strtod_r+0x89c>
    2594:	d8001c15 	stw	zero,112(sp)
    2598:	d8c01217 	ldw	r3,72(sp)
    259c:	d9401417 	ldw	r5,80(sp)
    25a0:	d9c01817 	ldw	r7,96(sp)
    25a4:	a809883a 	mov	r4,r21
    25a8:	a00d883a 	mov	r6,r20
    25ac:	d8c00015 	stw	r3,0(sp)
    25b0:	0009cc00 	call	9cc0 <__s2b>
    25b4:	11000304 	addi	r4,r2,12
    25b8:	d8801015 	stw	r2,64(sp)
    25bc:	d8800f17 	ldw	r2,60(sp)
    25c0:	d9001f15 	stw	r4,124(sp)
    25c4:	1004803a 	cmplt	r2,r2,zero
    25c8:	d8801e15 	stw	r2,120(sp)
    25cc:	d8c01017 	ldw	r3,64(sp)
    25d0:	a809883a 	mov	r4,r21
    25d4:	19400117 	ldw	r5,4(r3)
    25d8:	00092d40 	call	92d4 <_Balloc>
    25dc:	d9001017 	ldw	r4,64(sp)
    25e0:	d9401f17 	ldw	r5,124(sp)
    25e4:	102f883a 	mov	r23,r2
    25e8:	21800417 	ldw	r6,16(r4)
    25ec:	11000304 	addi	r4,r2,12
    25f0:	318d883a 	add	r6,r6,r6
    25f4:	318d883a 	add	r6,r6,r6
    25f8:	31800204 	addi	r6,r6,8
    25fc:	0008b3c0 	call	8b3c <memcpy>
    2600:	e2000017 	ldw	r8,0(fp)
    2604:	e2400117 	ldw	r9,4(fp)
    2608:	a809883a 	mov	r4,r21
    260c:	400b883a 	mov	r5,r8
    2610:	d9c00204 	addi	r7,sp,8
    2614:	d8800304 	addi	r2,sp,12
    2618:	480d883a 	mov	r6,r9
    261c:	d8800015 	stw	r2,0(sp)
    2620:	00093900 	call	9390 <__d2b>
    2624:	a809883a 	mov	r4,r21
    2628:	01400044 	movi	r5,1
    262c:	d8800515 	stw	r2,20(sp)
    2630:	0009a380 	call	9a38 <__i2b>
    2634:	d8c01e17 	ldw	r3,120(sp)
    2638:	102d883a 	mov	r22,r2
    263c:	1801091e 	bne	r3,zero,2a64 <_strtod_r+0xda4>
    2640:	dd000f17 	ldw	r20,60(sp)
    2644:	000f883a 	mov	r7,zero
    2648:	0013883a 	mov	r9,zero
    264c:	a011883a 	mov	r8,r20
    2650:	d8800217 	ldw	r2,8(sp)
    2654:	10010116 	blt	r2,zero,2a5c <_strtod_r+0xd9c>
    2658:	388f883a 	add	r7,r7,r2
    265c:	d8c01c17 	ldw	r3,112(sp)
    2660:	d9400317 	ldw	r5,12(sp)
    2664:	10c9c83a 	sub	r4,r2,r3
    2668:	2145883a 	add	r2,r4,r5
    266c:	10bfffc4 	addi	r2,r2,-1
    2670:	00ff0084 	movi	r3,-1022
    2674:	10c09f0e 	bge	r2,r3,28f4 <_strtod_r+0xc34>
    2678:	21810cc4 	addi	r6,r4,1075
    267c:	d9001c17 	ldw	r4,112(sp)
    2680:	4185883a 	add	r2,r8,r6
    2684:	39a1883a 	add	r16,r7,r6
    2688:	20a5883a 	add	r18,r4,r2
    268c:	3807883a 	mov	r3,r7
    2690:	81c0010e 	bge	r16,r7,2698 <_strtod_r+0x9d8>
    2694:	8007883a 	mov	r3,r16
    2698:	9005883a 	mov	r2,r18
    269c:	1c80010e 	bge	r3,r18,26a4 <_strtod_r+0x9e4>
    26a0:	1805883a 	mov	r2,r3
    26a4:	0080eb0e 	bge	zero,r2,2a54 <_strtod_r+0xd94>
    26a8:	38a7c83a 	sub	r19,r7,r2
    26ac:	80a1c83a 	sub	r16,r16,r2
    26b0:	90a5c83a 	sub	r18,r18,r2
    26b4:	02400e0e 	bge	zero,r9,26f0 <_strtod_r+0xa30>
    26b8:	480d883a 	mov	r6,r9
    26bc:	b00b883a 	mov	r5,r22
    26c0:	a809883a 	mov	r4,r21
    26c4:	0009ba00 	call	9ba0 <__pow5mult>
    26c8:	d9800517 	ldw	r6,20(sp)
    26cc:	a809883a 	mov	r4,r21
    26d0:	100b883a 	mov	r5,r2
    26d4:	102d883a 	mov	r22,r2
    26d8:	00097e40 	call	97e4 <__multiply>
    26dc:	d9400517 	ldw	r5,20(sp)
    26e0:	1023883a 	mov	r17,r2
    26e4:	a809883a 	mov	r4,r21
    26e8:	0008d540 	call	8d54 <_Bfree>
    26ec:	dc400515 	stw	r17,20(sp)
    26f0:	0400050e 	bge	zero,r16,2708 <_strtod_r+0xa48>
    26f4:	d9400517 	ldw	r5,20(sp)
    26f8:	800d883a 	mov	r6,r16
    26fc:	a809883a 	mov	r4,r21
    2700:	00096980 	call	9698 <__lshift>
    2704:	d8800515 	stw	r2,20(sp)
    2708:	a000741e 	bne	r20,zero,28dc <_strtod_r+0xc1c>
    270c:	0480050e 	bge	zero,r18,2724 <_strtod_r+0xa64>
    2710:	b80b883a 	mov	r5,r23
    2714:	900d883a 	mov	r6,r18
    2718:	a809883a 	mov	r4,r21
    271c:	00096980 	call	9698 <__lshift>
    2720:	102f883a 	mov	r23,r2
    2724:	04c0050e 	bge	zero,r19,273c <_strtod_r+0xa7c>
    2728:	b00b883a 	mov	r5,r22
    272c:	980d883a 	mov	r6,r19
    2730:	a809883a 	mov	r4,r21
    2734:	00096980 	call	9698 <__lshift>
    2738:	102d883a 	mov	r22,r2
    273c:	d9400517 	ldw	r5,20(sp)
    2740:	a809883a 	mov	r4,r21
    2744:	b80d883a 	mov	r6,r23
    2748:	000950c0 	call	950c <__mdiff>
    274c:	1029883a 	mov	r20,r2
    2750:	10800317 	ldw	r2,12(r2)
    2754:	a009883a 	mov	r4,r20
    2758:	a0000315 	stw	zero,12(r20)
    275c:	b00b883a 	mov	r5,r22
    2760:	d8801a15 	stw	r2,104(sp)
    2764:	0008eb00 	call	8eb0 <__mcmp>
    2768:	1001a616 	blt	r2,zero,2e04 <_strtod_r+0x1144>
    276c:	10016d26 	beq	r2,zero,2d24 <_strtod_r+0x1064>
    2770:	a009883a 	mov	r4,r20
    2774:	b00b883a 	mov	r5,r22
    2778:	00090b00 	call	90b0 <__ratio>
    277c:	0011883a 	mov	r8,zero
    2780:	02500034 	movhi	r9,16384
    2784:	480f883a 	mov	r7,r9
    2788:	1009883a 	mov	r4,r2
    278c:	180b883a 	mov	r5,r3
    2790:	400d883a 	mov	r6,r8
    2794:	1021883a 	mov	r16,r2
    2798:	1823883a 	mov	r17,r3
    279c:	000cbac0 	call	cbac <__ledf2>
    27a0:	00805716 	blt	zero,r2,2900 <_strtod_r+0xc40>
    27a4:	d8801a17 	ldw	r2,104(sp)
    27a8:	1025003a 	cmpeq	r18,r2,zero
    27ac:	90008c1e 	bne	r18,zero,29e0 <_strtod_r+0xd20>
    27b0:	008ffc34 	movhi	r2,16368
    27b4:	0021883a 	mov	r16,zero
    27b8:	1023883a 	mov	r17,r2
    27bc:	d8000715 	stw	zero,28(sp)
    27c0:	d8800815 	stw	r2,32(sp)
    27c4:	e1c00117 	ldw	r7,4(fp)
    27c8:	009ff834 	movhi	r2,32736
    27cc:	3cdffc2c 	andhi	r19,r7,32752
    27d0:	98805f26 	beq	r19,r2,2950 <_strtod_r+0xc90>
    27d4:	d8c01c17 	ldw	r3,112(sp)
    27d8:	18001b26 	beq	r3,zero,2848 <_strtod_r+0xb88>
    27dc:	0081a834 	movhi	r2,1696
    27e0:	14c01936 	bltu	r2,r19,2848 <_strtod_r+0xb88>
    27e4:	00bff034 	movhi	r2,65472
    27e8:	00d07834 	movhi	r3,16864
    27ec:	18ffffc4 	addi	r3,r3,-1
    27f0:	180f883a 	mov	r7,r3
    27f4:	8009883a 	mov	r4,r16
    27f8:	880b883a 	mov	r5,r17
    27fc:	100d883a 	mov	r6,r2
    2800:	000cbac0 	call	cbac <__ledf2>
    2804:	00800b16 	blt	zero,r2,2834 <_strtod_r+0xb74>
    2808:	880b883a 	mov	r5,r17
    280c:	8009883a 	mov	r4,r16
    2810:	000af0c0 	call	af0c <__fixunsdfsi>
    2814:	1000e31e 	bne	r2,zero,2ba4 <_strtod_r+0xee4>
    2818:	0021883a 	mov	r16,zero
    281c:	044ffc34 	movhi	r17,16368
    2820:	9000dd1e 	bne	r18,zero,2b98 <_strtod_r+0xed8>
    2824:	8005883a 	mov	r2,r16
    2828:	8807883a 	mov	r3,r17
    282c:	d8c00815 	stw	r3,32(sp)
    2830:	d8800715 	stw	r2,28(sp)
    2834:	d8800817 	ldw	r2,32(sp)
    2838:	00c1ac34 	movhi	r3,1712
    283c:	14c5c83a 	sub	r2,r2,r19
    2840:	10c5883a 	add	r2,r2,r3
    2844:	d8800815 	stw	r2,32(sp)
    2848:	e0800017 	ldw	r2,0(fp)
    284c:	e0c00117 	ldw	r3,4(fp)
    2850:	1009883a 	mov	r4,r2
    2854:	180b883a 	mov	r5,r3
    2858:	0008f100 	call	8f10 <__ulp>
    285c:	d9800717 	ldw	r6,28(sp)
    2860:	d9c00817 	ldw	r7,32(sp)
    2864:	180b883a 	mov	r5,r3
    2868:	1009883a 	mov	r4,r2
    286c:	000c2e80 	call	c2e8 <__muldf3>
    2870:	e2000017 	ldw	r8,0(fp)
    2874:	e2400117 	ldw	r9,4(fp)
    2878:	180b883a 	mov	r5,r3
    287c:	1009883a 	mov	r4,r2
    2880:	480f883a 	mov	r7,r9
    2884:	400d883a 	mov	r6,r8
    2888:	000c2740 	call	c274 <__adddf3>
    288c:	e0c00115 	stw	r3,4(fp)
    2890:	e0800015 	stw	r2,0(fp)
    2894:	d9001c17 	ldw	r4,112(sp)
    2898:	e4800117 	ldw	r18,4(fp)
    289c:	2000021e 	bne	r4,zero,28a8 <_strtod_r+0xbe8>
    28a0:	909ffc2c 	andhi	r2,r18,32752
    28a4:	98807f26 	beq	r19,r2,2aa4 <_strtod_r+0xde4>
    28a8:	d9400517 	ldw	r5,20(sp)
    28ac:	a809883a 	mov	r4,r21
    28b0:	0008d540 	call	8d54 <_Bfree>
    28b4:	a809883a 	mov	r4,r21
    28b8:	b80b883a 	mov	r5,r23
    28bc:	0008d540 	call	8d54 <_Bfree>
    28c0:	a809883a 	mov	r4,r21
    28c4:	b00b883a 	mov	r5,r22
    28c8:	0008d540 	call	8d54 <_Bfree>
    28cc:	a809883a 	mov	r4,r21
    28d0:	a00b883a 	mov	r5,r20
    28d4:	0008d540 	call	8d54 <_Bfree>
    28d8:	003f3c06 	br	25cc <_strtod_r+0x90c>
    28dc:	b80b883a 	mov	r5,r23
    28e0:	a00d883a 	mov	r6,r20
    28e4:	a809883a 	mov	r4,r21
    28e8:	0009ba00 	call	9ba0 <__pow5mult>
    28ec:	102f883a 	mov	r23,r2
    28f0:	003f8606 	br	270c <_strtod_r+0xa4c>
    28f4:	00800d84 	movi	r2,54
    28f8:	114dc83a 	sub	r6,r2,r5
    28fc:	003f5f06 	br	267c <_strtod_r+0x9bc>
    2900:	0005883a 	mov	r2,zero
    2904:	00cff834 	movhi	r3,16352
    2908:	8009883a 	mov	r4,r16
    290c:	880b883a 	mov	r5,r17
    2910:	180f883a 	mov	r7,r3
    2914:	100d883a 	mov	r6,r2
    2918:	000c2e80 	call	c2e8 <__muldf3>
    291c:	1009883a 	mov	r4,r2
    2920:	d8801a17 	ldw	r2,104(sp)
    2924:	2021883a 	mov	r16,r4
    2928:	1823883a 	mov	r17,r3
    292c:	1025003a 	cmpeq	r18,r2,zero
    2930:	9000451e 	bne	r18,zero,2a48 <_strtod_r+0xd88>
    2934:	2005883a 	mov	r2,r4
    2938:	d8800715 	stw	r2,28(sp)
    293c:	d8c00815 	stw	r3,32(sp)
    2940:	e1c00117 	ldw	r7,4(fp)
    2944:	009ff834 	movhi	r2,32736
    2948:	3cdffc2c 	andhi	r19,r7,32752
    294c:	98bfa11e 	bne	r19,r2,27d4 <_strtod_r+0xb14>
    2950:	e1000017 	ldw	r4,0(fp)
    2954:	01bf2c34 	movhi	r6,64688
    2958:	398d883a 	add	r6,r7,r6
    295c:	d9000b15 	stw	r4,44(sp)
    2960:	d9c00c15 	stw	r7,48(sp)
    2964:	300b883a 	mov	r5,r6
    2968:	e1800115 	stw	r6,4(fp)
    296c:	0008f100 	call	8f10 <__ulp>
    2970:	d9800717 	ldw	r6,28(sp)
    2974:	d9c00817 	ldw	r7,32(sp)
    2978:	180b883a 	mov	r5,r3
    297c:	1009883a 	mov	r4,r2
    2980:	000c2e80 	call	c2e8 <__muldf3>
    2984:	e2000017 	ldw	r8,0(fp)
    2988:	e2400117 	ldw	r9,4(fp)
    298c:	180b883a 	mov	r5,r3
    2990:	1009883a 	mov	r4,r2
    2994:	480f883a 	mov	r7,r9
    2998:	400d883a 	mov	r6,r8
    299c:	000c2740 	call	c274 <__adddf3>
    29a0:	1009883a 	mov	r4,r2
    29a4:	180b883a 	mov	r5,r3
    29a8:	009f2834 	movhi	r2,31904
    29ac:	10bfffc4 	addi	r2,r2,-1
    29b0:	18dffc2c 	andhi	r3,r3,32752
    29b4:	e1000015 	stw	r4,0(fp)
    29b8:	e1400115 	stw	r5,4(fp)
    29bc:	10c0722e 	bgeu	r2,r3,2b88 <_strtod_r+0xec8>
    29c0:	d8800c17 	ldw	r2,48(sp)
    29c4:	011ffc34 	movhi	r4,32752
    29c8:	213fffc4 	addi	r4,r4,-1
    29cc:	11007d26 	beq	r2,r4,2bc4 <_strtod_r+0xf04>
    29d0:	01ffffc4 	movi	r7,-1
    29d4:	e1000115 	stw	r4,4(fp)
    29d8:	e1c00015 	stw	r7,0(fp)
    29dc:	003fb206 	br	28a8 <_strtod_r+0xbe8>
    29e0:	e0c00017 	ldw	r3,0(fp)
    29e4:	1800251e 	bne	r3,zero,2a7c <_strtod_r+0xdbc>
    29e8:	e0800117 	ldw	r2,4(fp)
    29ec:	00c00434 	movhi	r3,16
    29f0:	18ffffc4 	addi	r3,r3,-1
    29f4:	10c4703a 	and	r2,r2,r3
    29f8:	1000241e 	bne	r2,zero,2a8c <_strtod_r+0xdcc>
    29fc:	0005883a 	mov	r2,zero
    2a00:	00cffc34 	movhi	r3,16368
    2a04:	180f883a 	mov	r7,r3
    2a08:	8009883a 	mov	r4,r16
    2a0c:	880b883a 	mov	r5,r17
    2a10:	100d883a 	mov	r6,r2
    2a14:	000cb240 	call	cb24 <__ltdf2>
    2a18:	10014616 	blt	r2,zero,2f34 <_strtod_r+0x1274>
    2a1c:	0005883a 	mov	r2,zero
    2a20:	00cff834 	movhi	r3,16352
    2a24:	880b883a 	mov	r5,r17
    2a28:	8009883a 	mov	r4,r16
    2a2c:	180f883a 	mov	r7,r3
    2a30:	100d883a 	mov	r6,r2
    2a34:	000c2e80 	call	c2e8 <__muldf3>
    2a38:	1823883a 	mov	r17,r3
    2a3c:	1021883a 	mov	r16,r2
    2a40:	18e0003c 	xorhi	r3,r3,32768
    2a44:	003fbc06 	br	2938 <_strtod_r+0xc78>
    2a48:	2005883a 	mov	r2,r4
    2a4c:	18e0003c 	xorhi	r3,r3,32768
    2a50:	003fb906 	br	2938 <_strtod_r+0xc78>
    2a54:	3827883a 	mov	r19,r7
    2a58:	003f1606 	br	26b4 <_strtod_r+0x9f4>
    2a5c:	4091c83a 	sub	r8,r8,r2
    2a60:	003efe06 	br	265c <_strtod_r+0x99c>
    2a64:	d9000f17 	ldw	r4,60(sp)
    2a68:	0011883a 	mov	r8,zero
    2a6c:	0029883a 	mov	r20,zero
    2a70:	0113c83a 	sub	r9,zero,r4
    2a74:	480f883a 	mov	r7,r9
    2a78:	003ef506 	br	2650 <_strtod_r+0x990>
    2a7c:	00800044 	movi	r2,1
    2a80:	1880021e 	bne	r3,r2,2a8c <_strtod_r+0xdcc>
    2a84:	e0800117 	ldw	r2,4(fp)
    2a88:	1000c526 	beq	r2,zero,2da0 <_strtod_r+0x10e0>
    2a8c:	00affc34 	movhi	r2,49136
    2a90:	0021883a 	mov	r16,zero
    2a94:	044ffc34 	movhi	r17,16368
    2a98:	d8800815 	stw	r2,32(sp)
    2a9c:	d8000715 	stw	zero,28(sp)
    2aa0:	003f4806 	br	27c4 <_strtod_r+0xb04>
    2aa4:	880b883a 	mov	r5,r17
    2aa8:	8009883a 	mov	r4,r16
    2aac:	000cd2c0 	call	cd2c <__fixdfsi>
    2ab0:	1009883a 	mov	r4,r2
    2ab4:	000cc340 	call	cc34 <__floatsidf>
    2ab8:	880b883a 	mov	r5,r17
    2abc:	8009883a 	mov	r4,r16
    2ac0:	100d883a 	mov	r6,r2
    2ac4:	180f883a 	mov	r7,r3
    2ac8:	000c1f40 	call	c1f4 <__subdf3>
    2acc:	100b883a 	mov	r5,r2
    2ad0:	1021883a 	mov	r16,r2
    2ad4:	d8801a17 	ldw	r2,104(sp)
    2ad8:	180d883a 	mov	r6,r3
    2adc:	1823883a 	mov	r17,r3
    2ae0:	1000061e 	bne	r2,zero,2afc <_strtod_r+0xe3c>
    2ae4:	e0800017 	ldw	r2,0(fp)
    2ae8:	1000041e 	bne	r2,zero,2afc <_strtod_r+0xe3c>
    2aec:	00c00434 	movhi	r3,16
    2af0:	18ffffc4 	addi	r3,r3,-1
    2af4:	90c4703a 	and	r2,r18,r3
    2af8:	10004026 	beq	r2,zero,2bfc <_strtod_r+0xf3c>
    2afc:	00a52834 	movhi	r2,38048
    2b00:	108d6544 	addi	r2,r2,13717
    2b04:	00cff834 	movhi	r3,16352
    2b08:	18ffffc4 	addi	r3,r3,-1
    2b0c:	180f883a 	mov	r7,r3
    2b10:	8009883a 	mov	r4,r16
    2b14:	880b883a 	mov	r5,r17
    2b18:	100d883a 	mov	r6,r2
    2b1c:	000cb240 	call	cb24 <__ltdf2>
    2b20:	10000916 	blt	r2,zero,2b48 <_strtod_r+0xe88>
    2b24:	008d6c34 	movhi	r2,13744
    2b28:	10b94d44 	addi	r2,r2,-6859
    2b2c:	00cff834 	movhi	r3,16352
    2b30:	880b883a 	mov	r5,r17
    2b34:	180f883a 	mov	r7,r3
    2b38:	8009883a 	mov	r4,r16
    2b3c:	100d883a 	mov	r6,r2
    2b40:	000ca140 	call	ca14 <__gtdf2>
    2b44:	00bf580e 	bge	zero,r2,28a8 <_strtod_r+0xbe8>
    2b48:	d9400517 	ldw	r5,20(sp)
    2b4c:	a809883a 	mov	r4,r21
    2b50:	0008d540 	call	8d54 <_Bfree>
    2b54:	a809883a 	mov	r4,r21
    2b58:	b80b883a 	mov	r5,r23
    2b5c:	0008d540 	call	8d54 <_Bfree>
    2b60:	a809883a 	mov	r4,r21
    2b64:	b00b883a 	mov	r5,r22
    2b68:	0008d540 	call	8d54 <_Bfree>
    2b6c:	d9401017 	ldw	r5,64(sp)
    2b70:	a809883a 	mov	r4,r21
    2b74:	0008d540 	call	8d54 <_Bfree>
    2b78:	a809883a 	mov	r4,r21
    2b7c:	a00b883a 	mov	r5,r20
    2b80:	0008d540 	call	8d54 <_Bfree>
    2b84:	003cd806 	br	1ee8 <_strtod_r+0x228>
    2b88:	0080d434 	movhi	r2,848
    2b8c:	288d883a 	add	r6,r5,r2
    2b90:	e1800115 	stw	r6,4(fp)
    2b94:	003f3f06 	br	2894 <_strtod_r+0xbd4>
    2b98:	8005883a 	mov	r2,r16
    2b9c:	88e0003c 	xorhi	r3,r17,32768
    2ba0:	003f2206 	br	282c <_strtod_r+0xb6c>
    2ba4:	1009883a 	mov	r4,r2
    2ba8:	000ce040 	call	ce04 <__floatunsidf>
    2bac:	1021883a 	mov	r16,r2
    2bb0:	1823883a 	mov	r17,r3
    2bb4:	003f1a06 	br	2820 <_strtod_r+0xb60>
    2bb8:	dc000417 	ldw	r16,16(sp)
    2bbc:	31800044 	addi	r6,r6,1
    2bc0:	003e5606 	br	251c <_strtod_r+0x85c>
    2bc4:	d8c00b17 	ldw	r3,44(sp)
    2bc8:	00bfffc4 	movi	r2,-1
    2bcc:	18bf801e 	bne	r3,r2,29d0 <_strtod_r+0xd10>
    2bd0:	00c00884 	movi	r3,34
    2bd4:	a8c00015 	stw	r3,0(r21)
    2bd8:	009ffc34 	movhi	r2,32752
    2bdc:	e0800115 	stw	r2,4(fp)
    2be0:	e0000015 	stw	zero,0(fp)
    2be4:	003fd806 	br	2b48 <_strtod_r+0xe88>
    2be8:	8025883a 	mov	r18,r16
    2bec:	0027883a 	mov	r19,zero
    2bf0:	d8001215 	stw	zero,72(sp)
    2bf4:	d8001115 	stw	zero,68(sp)
    2bf8:	003cac06 	br	1eac <_strtod_r+0x1ec>
    2bfc:	00a52834 	movhi	r2,38048
    2c00:	108d6544 	addi	r2,r2,13717
    2c04:	00cff434 	movhi	r3,16336
    2c08:	18ffffc4 	addi	r3,r3,-1
    2c0c:	2809883a 	mov	r4,r5
    2c10:	180f883a 	mov	r7,r3
    2c14:	300b883a 	mov	r5,r6
    2c18:	100d883a 	mov	r6,r2
    2c1c:	000cb240 	call	cb24 <__ltdf2>
    2c20:	103f210e 	bge	r2,zero,28a8 <_strtod_r+0xbe8>
    2c24:	003fc806 	br	2b48 <_strtod_r+0xe88>
    2c28:	00800044 	movi	r2,1
    2c2c:	d8001815 	stw	zero,96(sp)
    2c30:	d8801b15 	stw	r2,108(sp)
    2c34:	d8001715 	stw	zero,92(sp)
    2c38:	003ca206 	br	1ec4 <_strtod_r+0x204>
    2c3c:	00800884 	movi	r2,34
    2c40:	a8800015 	stw	r2,0(r21)
    2c44:	019ffc34 	movhi	r6,32752
    2c48:	e1800115 	stw	r6,4(fp)
    2c4c:	e0000015 	stw	zero,0(fp)
    2c50:	003ca506 	br	1ee8 <_strtod_r+0x228>
    2c54:	011387c4 	movi	r4,19999
    2c58:	003d0206 	br	2064 <_strtod_r+0x3a4>
    2c5c:	180a90fa 	slli	r5,r3,3
    2c60:	e0800017 	ldw	r2,0(fp)
    2c64:	e0c00117 	ldw	r3,4(fp)
    2c68:	01000074 	movhi	r4,1
    2c6c:	213c1904 	addi	r4,r4,-3996
    2c70:	290b883a 	add	r5,r5,r4
    2c74:	2a000017 	ldw	r8,0(r5)
    2c78:	2a400117 	ldw	r9,4(r5)
    2c7c:	1009883a 	mov	r4,r2
    2c80:	180b883a 	mov	r5,r3
    2c84:	480f883a 	mov	r7,r9
    2c88:	400d883a 	mov	r6,r8
    2c8c:	000c2e80 	call	c2e8 <__muldf3>
    2c90:	e0c00115 	stw	r3,4(fp)
    2c94:	e0800015 	stw	r2,0(fp)
    2c98:	003c9306 	br	1ee8 <_strtod_r+0x228>
    2c9c:	d8800d17 	ldw	r2,52(sp)
    2ca0:	e0800015 	stw	r2,0(fp)
    2ca4:	d8c00e17 	ldw	r3,56(sp)
    2ca8:	e0c00115 	stw	r3,4(fp)
    2cac:	9080020c 	andi	r2,r18,8
    2cb0:	103c8d26 	beq	r2,zero,1ee8 <_strtod_r+0x228>
    2cb4:	e0800117 	ldw	r2,4(fp)
    2cb8:	10a00034 	orhi	r2,r2,32768
    2cbc:	e0800115 	stw	r2,4(fp)
    2cc0:	003c8906 	br	1ee8 <_strtod_r+0x228>
    2cc4:	009ffc34 	movhi	r2,32752
    2cc8:	e0800115 	stw	r2,4(fp)
    2ccc:	e0000015 	stw	zero,0(fp)
    2cd0:	003ff606 	br	2cac <_strtod_r+0xfec>
    2cd4:	00a00034 	movhi	r2,32768
    2cd8:	10bfffc4 	addi	r2,r2,-1
    2cdc:	00ffffc4 	movi	r3,-1
    2ce0:	e0800115 	stw	r2,4(fp)
    2ce4:	e0c00015 	stw	r3,0(fp)
    2ce8:	003ff006 	br	2cac <_strtod_r+0xfec>
    2cec:	e0000115 	stw	zero,4(fp)
    2cf0:	e0000015 	stw	zero,0(fp)
    2cf4:	003fed06 	br	2cac <_strtod_r+0xfec>
    2cf8:	d8800e17 	ldw	r2,56(sp)
    2cfc:	29010cc4 	addi	r4,r5,1075
    2d00:	00fffc34 	movhi	r3,65520
    2d04:	18ffffc4 	addi	r3,r3,-1
    2d08:	2008953a 	slli	r4,r4,20
    2d0c:	10c4703a 	and	r2,r2,r3
    2d10:	d8c00d17 	ldw	r3,52(sp)
    2d14:	1104b03a 	or	r2,r2,r4
    2d18:	e0800115 	stw	r2,4(fp)
    2d1c:	e0c00015 	stw	r3,0(fp)
    2d20:	003fe206 	br	2cac <_strtod_r+0xfec>
    2d24:	d8c01a17 	ldw	r3,104(sp)
    2d28:	1825003a 	cmpeq	r18,r3,zero
    2d2c:	9000cf1e 	bne	r18,zero,306c <_strtod_r+0x13ac>
    2d30:	e1400117 	ldw	r5,4(fp)
    2d34:	01000434 	movhi	r4,16
    2d38:	213fffc4 	addi	r4,r4,-1
    2d3c:	2904703a 	and	r2,r5,r4
    2d40:	11006826 	beq	r2,r4,2ee4 <_strtod_r+0x1224>
    2d44:	e1c00017 	ldw	r7,0(fp)
    2d48:	3880004c 	andi	r2,r7,1
    2d4c:	1005003a 	cmpeq	r2,r2,zero
    2d50:	1000601e 	bne	r2,zero,2ed4 <_strtod_r+0x1214>
    2d54:	90010426 	beq	r18,zero,3168 <_strtod_r+0x14a8>
    2d58:	e4400117 	ldw	r17,4(fp)
    2d5c:	3809883a 	mov	r4,r7
    2d60:	3821883a 	mov	r16,r7
    2d64:	880b883a 	mov	r5,r17
    2d68:	0008f100 	call	8f10 <__ulp>
    2d6c:	180f883a 	mov	r7,r3
    2d70:	880b883a 	mov	r5,r17
    2d74:	8009883a 	mov	r4,r16
    2d78:	100d883a 	mov	r6,r2
    2d7c:	000c1f40 	call	c1f4 <__subdf3>
    2d80:	1009883a 	mov	r4,r2
    2d84:	000d883a 	mov	r6,zero
    2d88:	000f883a 	mov	r7,zero
    2d8c:	180b883a 	mov	r5,r3
    2d90:	e0800015 	stw	r2,0(fp)
    2d94:	e0c00115 	stw	r3,4(fp)
    2d98:	000c98c0 	call	c98c <__nedf2>
    2d9c:	10004d1e 	bne	r2,zero,2ed4 <_strtod_r+0x1214>
    2da0:	00800884 	movi	r2,34
    2da4:	a8800015 	stw	r2,0(r21)
    2da8:	e0000015 	stw	zero,0(fp)
    2dac:	e0000115 	stw	zero,4(fp)
    2db0:	003f6506 	br	2b48 <_strtod_r+0xe88>
    2db4:	00800044 	movi	r2,1
    2db8:	d8801915 	stw	r2,100(sp)
    2dbc:	003d4406 	br	22d0 <_strtod_r+0x610>
    2dc0:	d8c01817 	ldw	r3,96(sp)
    2dc4:	1985883a 	add	r2,r3,r6
    2dc8:	11ffffc4 	addi	r7,r2,-1
    2dcc:	39000044 	addi	r4,r7,1
    2dd0:	00800204 	movi	r2,8
    2dd4:	d9001815 	stw	r4,96(sp)
    2dd8:	11c0d716 	blt	r2,r7,3138 <_strtod_r+0x1478>
    2ddc:	d9001217 	ldw	r4,72(sp)
    2de0:	01400284 	movi	r5,10
    2de4:	000d0e40 	call	d0e4 <__mulsi3>
    2de8:	1585883a 	add	r2,r2,r22
    2dec:	d8801215 	stw	r2,72(sp)
    2df0:	000d883a 	mov	r6,zero
    2df4:	84000044 	addi	r16,r16,1
    2df8:	dc000415 	stw	r16,16(sp)
    2dfc:	84400007 	ldb	r17,0(r16)
    2e00:	003cfc06 	br	21f4 <_strtod_r+0x534>
    2e04:	d8c01a17 	ldw	r3,104(sp)
    2e08:	1800321e 	bne	r3,zero,2ed4 <_strtod_r+0x1214>
    2e0c:	e0800017 	ldw	r2,0(fp)
    2e10:	1000b31e 	bne	r2,zero,30e0 <_strtod_r+0x1420>
    2e14:	e0c00117 	ldw	r3,4(fp)
    2e18:	01000434 	movhi	r4,16
    2e1c:	213fffc4 	addi	r4,r4,-1
    2e20:	1904703a 	and	r2,r3,r4
    2e24:	1000e71e 	bne	r2,zero,31c4 <_strtod_r+0x1504>
    2e28:	18dffc2c 	andhi	r3,r3,32752
    2e2c:	0081ac34 	movhi	r2,1712
    2e30:	10c0282e 	bgeu	r2,r3,2ed4 <_strtod_r+0x1214>
    2e34:	a0800517 	ldw	r2,20(r20)
    2e38:	1000031e 	bne	r2,zero,2e48 <_strtod_r+0x1188>
    2e3c:	a0c00417 	ldw	r3,16(r20)
    2e40:	00800044 	movi	r2,1
    2e44:	10c0a60e 	bge	r2,r3,30e0 <_strtod_r+0x1420>
    2e48:	a00b883a 	mov	r5,r20
    2e4c:	a809883a 	mov	r4,r21
    2e50:	01800044 	movi	r6,1
    2e54:	00096980 	call	9698 <__lshift>
    2e58:	1009883a 	mov	r4,r2
    2e5c:	b00b883a 	mov	r5,r22
    2e60:	1029883a 	mov	r20,r2
    2e64:	0008eb00 	call	8eb0 <__mcmp>
    2e68:	00809d0e 	bge	zero,r2,30e0 <_strtod_r+0x1420>
    2e6c:	e1800117 	ldw	r6,4(fp)
    2e70:	d9001c17 	ldw	r4,112(sp)
    2e74:	2013003a 	cmpeq	r9,r4,zero
    2e78:	4800d61e 	bne	r9,zero,31d4 <_strtod_r+0x1514>
    2e7c:	30dffc2c 	andhi	r3,r6,32752
    2e80:	0081ac34 	movhi	r2,1712
    2e84:	10c0d336 	bltu	r2,r3,31d4 <_strtod_r+0x1514>
    2e88:	0080dc34 	movhi	r2,880
    2e8c:	10ffc42e 	bgeu	r2,r3,2da0 <_strtod_r+0x10e0>
    2e90:	e0800017 	ldw	r2,0(fp)
    2e94:	e0c00117 	ldw	r3,4(fp)
    2e98:	020e5434 	movhi	r8,14672
    2e9c:	000d883a 	mov	r6,zero
    2ea0:	400f883a 	mov	r7,r8
    2ea4:	180b883a 	mov	r5,r3
    2ea8:	1009883a 	mov	r4,r2
    2eac:	da000c15 	stw	r8,48(sp)
    2eb0:	d8000b15 	stw	zero,44(sp)
    2eb4:	000c2e80 	call	c2e8 <__muldf3>
    2eb8:	e0800015 	stw	r2,0(fp)
    2ebc:	e0c00115 	stw	r3,4(fp)
    2ec0:	183f211e 	bne	r3,zero,2b48 <_strtod_r+0xe88>
    2ec4:	103f201e 	bne	r2,zero,2b48 <_strtod_r+0xe88>
    2ec8:	00800884 	movi	r2,34
    2ecc:	a8800015 	stw	r2,0(r21)
    2ed0:	003f1d06 	br	2b48 <_strtod_r+0xe88>
    2ed4:	d9001c17 	ldw	r4,112(sp)
    2ed8:	2013003a 	cmpeq	r9,r4,zero
    2edc:	483f1a1e 	bne	r9,zero,2b48 <_strtod_r+0xe88>
    2ee0:	003feb06 	br	2e90 <_strtod_r+0x11d0>
    2ee4:	d8801c17 	ldw	r2,112(sp)
    2ee8:	e1c00017 	ldw	r7,0(fp)
    2eec:	1013003a 	cmpeq	r9,r2,zero
    2ef0:	4800c31e 	bne	r9,zero,3200 <_strtod_r+0x1540>
    2ef4:	28dffc2c 	andhi	r3,r5,32752
    2ef8:	0081a834 	movhi	r2,1696
    2efc:	10c0c036 	bltu	r2,r3,3200 <_strtod_r+0x1540>
    2f00:	1804d53a 	srli	r2,r3,20
    2f04:	00c01ac4 	movi	r3,107
    2f08:	013fffc4 	movi	r4,-1
    2f0c:	1887c83a 	sub	r3,r3,r2
    2f10:	20c4983a 	sll	r2,r4,r3
    2f14:	11ff8c1e 	bne	r2,r7,2d48 <_strtod_r+0x1088>
    2f18:	28dffc2c 	andhi	r3,r5,32752
    2f1c:	00800434 	movhi	r2,16
    2f20:	188d883a 	add	r6,r3,r2
    2f24:	e1800115 	stw	r6,4(fp)
    2f28:	e0000015 	stw	zero,0(fp)
    2f2c:	483f061e 	bne	r9,zero,2b48 <_strtod_r+0xe88>
    2f30:	003fd706 	br	2e90 <_strtod_r+0x11d0>
    2f34:	0021883a 	mov	r16,zero
    2f38:	0005883a 	mov	r2,zero
    2f3c:	044ff834 	movhi	r17,16352
    2f40:	00eff834 	movhi	r3,49120
    2f44:	003e7c06 	br	2938 <_strtod_r+0xc78>
    2f48:	803d9226 	beq	r16,zero,2594 <_strtod_r+0x8d4>
    2f4c:	0421c83a 	sub	r16,zero,r16
    2f50:	814003cc 	andi	r5,r16,15
    2f54:	28000f26 	beq	r5,zero,2f94 <_strtod_r+0x12d4>
    2f58:	280a90fa 	slli	r5,r5,3
    2f5c:	01000074 	movhi	r4,1
    2f60:	213c1904 	addi	r4,r4,-3996
    2f64:	e0800017 	ldw	r2,0(fp)
    2f68:	290b883a 	add	r5,r5,r4
    2f6c:	2a000017 	ldw	r8,0(r5)
    2f70:	e0c00117 	ldw	r3,4(fp)
    2f74:	2a400117 	ldw	r9,4(r5)
    2f78:	1009883a 	mov	r4,r2
    2f7c:	180b883a 	mov	r5,r3
    2f80:	480f883a 	mov	r7,r9
    2f84:	400d883a 	mov	r6,r8
    2f88:	000c6ac0 	call	c6ac <__divdf3>
    2f8c:	e0c00115 	stw	r3,4(fp)
    2f90:	e0800015 	stw	r2,0(fp)
    2f94:	8021d13a 	srai	r16,r16,4
    2f98:	803d7e26 	beq	r16,zero,2594 <_strtod_r+0x8d4>
    2f9c:	008007c4 	movi	r2,31
    2fa0:	14002d16 	blt	r2,r16,3058 <_strtod_r+0x1398>
    2fa4:	8080040c 	andi	r2,r16,16
    2fa8:	10009d26 	beq	r2,zero,3220 <_strtod_r+0x1560>
    2fac:	01001a84 	movi	r4,106
    2fb0:	d9001c15 	stw	r4,112(sp)
    2fb4:	0400110e 	bge	zero,r16,2ffc <_strtod_r+0x133c>
    2fb8:	04400074 	movhi	r17,1
    2fbc:	8c7bd304 	addi	r17,r17,-4276
    2fc0:	8080004c 	andi	r2,r16,1
    2fc4:	1005003a 	cmpeq	r2,r2,zero
    2fc8:	1000091e 	bne	r2,zero,2ff0 <_strtod_r+0x1330>
    2fcc:	e0800017 	ldw	r2,0(fp)
    2fd0:	e0c00117 	ldw	r3,4(fp)
    2fd4:	89800017 	ldw	r6,0(r17)
    2fd8:	89c00117 	ldw	r7,4(r17)
    2fdc:	180b883a 	mov	r5,r3
    2fe0:	1009883a 	mov	r4,r2
    2fe4:	000c2e80 	call	c2e8 <__muldf3>
    2fe8:	e0c00115 	stw	r3,4(fp)
    2fec:	e0800015 	stw	r2,0(fp)
    2ff0:	8021d07a 	srai	r16,r16,1
    2ff4:	8c400204 	addi	r17,r17,8
    2ff8:	043ff116 	blt	zero,r16,2fc0 <_strtod_r+0x1300>
    2ffc:	d8801c17 	ldw	r2,112(sp)
    3000:	10000d26 	beq	r2,zero,3038 <_strtod_r+0x1378>
    3004:	e1000117 	ldw	r4,4(fp)
    3008:	00c01ac4 	movi	r3,107
    300c:	209ffc2c 	andhi	r2,r4,32752
    3010:	1004d53a 	srli	r2,r2,20
    3014:	1887c83a 	sub	r3,r3,r2
    3018:	00c0070e 	bge	zero,r3,3038 <_strtod_r+0x1378>
    301c:	008007c4 	movi	r2,31
    3020:	10c0940e 	bge	r2,r3,3274 <_strtod_r+0x15b4>
    3024:	00800d04 	movi	r2,52
    3028:	e0000015 	stw	zero,0(fp)
    302c:	10c08b0e 	bge	r2,r3,325c <_strtod_r+0x159c>
    3030:	0180dc34 	movhi	r6,880
    3034:	e1800115 	stw	r6,4(fp)
    3038:	e0800017 	ldw	r2,0(fp)
    303c:	e0c00117 	ldw	r3,4(fp)
    3040:	000d883a 	mov	r6,zero
    3044:	000f883a 	mov	r7,zero
    3048:	180b883a 	mov	r5,r3
    304c:	1009883a 	mov	r4,r2
    3050:	000c98c0 	call	c98c <__nedf2>
    3054:	103d501e 	bne	r2,zero,2598 <_strtod_r+0x8d8>
    3058:	00800884 	movi	r2,34
    305c:	a8800015 	stw	r2,0(r21)
    3060:	e0000015 	stw	zero,0(fp)
    3064:	e0000115 	stw	zero,4(fp)
    3068:	003b9f06 	br	1ee8 <_strtod_r+0x228>
    306c:	e1800117 	ldw	r6,4(fp)
    3070:	00c00434 	movhi	r3,16
    3074:	18ffffc4 	addi	r3,r3,-1
    3078:	30c4703a 	and	r2,r6,r3
    307c:	103f311e 	bne	r2,zero,2d44 <_strtod_r+0x1084>
    3080:	e1c00017 	ldw	r7,0(fp)
    3084:	383f301e 	bne	r7,zero,2d48 <_strtod_r+0x1088>
    3088:	003f7906 	br	2e70 <_strtod_r+0x11b0>
    308c:	d8c00f17 	ldw	r3,60(sp)
    3090:	00bffa84 	movi	r2,-22
    3094:	18bcbf16 	blt	r3,r2,2394 <_strtod_r+0x6d4>
    3098:	1809883a 	mov	r4,r3
    309c:	017ffe04 	movi	r5,-8
    30a0:	000d0e40 	call	d0e4 <__mulsi3>
    30a4:	00c00074 	movhi	r3,1
    30a8:	18fc1904 	addi	r3,r3,-3996
    30ac:	10c5883a 	add	r2,r2,r3
    30b0:	e2000017 	ldw	r8,0(fp)
    30b4:	e2400117 	ldw	r9,4(fp)
    30b8:	12800017 	ldw	r10,0(r2)
    30bc:	12c00117 	ldw	r11,4(r2)
    30c0:	480b883a 	mov	r5,r9
    30c4:	4009883a 	mov	r4,r8
    30c8:	580f883a 	mov	r7,r11
    30cc:	500d883a 	mov	r6,r10
    30d0:	000c6ac0 	call	c6ac <__divdf3>
    30d4:	e0c00115 	stw	r3,4(fp)
    30d8:	e0800015 	stw	r2,0(fp)
    30dc:	003b8206 	br	1ee8 <_strtod_r+0x228>
    30e0:	d8801c17 	ldw	r2,112(sp)
    30e4:	1013003a 	cmpeq	r9,r2,zero
    30e8:	483e971e 	bne	r9,zero,2b48 <_strtod_r+0xe88>
    30ec:	003f6806 	br	2e90 <_strtod_r+0x11d0>
    30f0:	00801a44 	movi	r2,105
    30f4:	88bc5026 	beq	r17,r2,2238 <_strtod_r+0x578>
    30f8:	00801b84 	movi	r2,110
    30fc:	88bb9b1e 	bne	r17,r2,1f6c <_strtod_r+0x2ac>
    3100:	dc000404 	addi	r16,sp,16
    3104:	8009883a 	mov	r4,r16
    3108:	01400074 	movhi	r5,1
    310c:	297bd204 	addi	r5,r5,-4280
    3110:	0001c780 	call	1c78 <match>
    3114:	103b9526 	beq	r2,zero,1f6c <_strtod_r+0x2ac>
    3118:	d8800417 	ldw	r2,16(sp)
    311c:	00c00a04 	movi	r3,40
    3120:	11000007 	ldb	r4,0(r2)
    3124:	20c04026 	beq	r4,r3,3228 <_strtod_r+0x1568>
    3128:	01bffe34 	movhi	r6,65528
    312c:	e1800115 	stw	r6,4(fp)
    3130:	e0000015 	stw	zero,0(fp)
    3134:	003b6c06 	br	1ee8 <_strtod_r+0x228>
    3138:	d8c01817 	ldw	r3,96(sp)
    313c:	00800404 	movi	r2,16
    3140:	10c00516 	blt	r2,r3,3158 <_strtod_r+0x1498>
    3144:	d9001117 	ldw	r4,68(sp)
    3148:	01400284 	movi	r5,10
    314c:	000d0e40 	call	d0e4 <__mulsi3>
    3150:	1585883a 	add	r2,r2,r22
    3154:	d8801115 	stw	r2,68(sp)
    3158:	000d883a 	mov	r6,zero
    315c:	003f2506 	br	2df4 <_strtod_r+0x1134>
    3160:	000d883a 	mov	r6,zero
    3164:	003ce306 	br	24f4 <_strtod_r+0x834>
    3168:	e4400117 	ldw	r17,4(fp)
    316c:	3809883a 	mov	r4,r7
    3170:	3821883a 	mov	r16,r7
    3174:	880b883a 	mov	r5,r17
    3178:	0008f100 	call	8f10 <__ulp>
    317c:	180f883a 	mov	r7,r3
    3180:	880b883a 	mov	r5,r17
    3184:	8009883a 	mov	r4,r16
    3188:	100d883a 	mov	r6,r2
    318c:	000c2740 	call	c274 <__adddf3>
    3190:	180b883a 	mov	r5,r3
    3194:	d8c01c17 	ldw	r3,112(sp)
    3198:	1009883a 	mov	r4,r2
    319c:	e1400115 	stw	r5,4(fp)
    31a0:	1813003a 	cmpeq	r9,r3,zero
    31a4:	e1000015 	stw	r4,0(fp)
    31a8:	483e671e 	bne	r9,zero,2b48 <_strtod_r+0xe88>
    31ac:	003f3806 	br	2e90 <_strtod_r+0x11d0>
    31b0:	0080d434 	movhi	r2,848
    31b4:	188d883a 	add	r6,r3,r2
    31b8:	d8001c15 	stw	zero,112(sp)
    31bc:	e1800115 	stw	r6,4(fp)
    31c0:	003cf506 	br	2598 <_strtod_r+0x8d8>
    31c4:	d8c01c17 	ldw	r3,112(sp)
    31c8:	1813003a 	cmpeq	r9,r3,zero
    31cc:	483e5e1e 	bne	r9,zero,2b48 <_strtod_r+0xe88>
    31d0:	003f2f06 	br	2e90 <_strtod_r+0x11d0>
    31d4:	309ffc2c 	andhi	r2,r6,32752
    31d8:	00fffc34 	movhi	r3,65520
    31dc:	10c5883a 	add	r2,r2,r3
    31e0:	00c00434 	movhi	r3,16
    31e4:	18ffffc4 	addi	r3,r3,-1
    31e8:	10ccb03a 	or	r6,r2,r3
    31ec:	01ffffc4 	movi	r7,-1
    31f0:	e1800115 	stw	r6,4(fp)
    31f4:	e1c00015 	stw	r7,0(fp)
    31f8:	483e531e 	bne	r9,zero,2b48 <_strtod_r+0xe88>
    31fc:	003f2406 	br	2e90 <_strtod_r+0x11d0>
    3200:	00bfffc4 	movi	r2,-1
    3204:	003f4306 	br	2f14 <_strtod_r+0x1254>
    3208:	0025883a 	mov	r18,zero
    320c:	05800074 	movhi	r22,1
    3210:	b5bc4b04 	addi	r22,r22,-3796
    3214:	003c9206 	br	2460 <_strtod_r+0x7a0>
    3218:	d9c01817 	ldw	r7,96(sp)
    321c:	003eeb06 	br	2dcc <_strtod_r+0x110c>
    3220:	d8001c15 	stw	zero,112(sp)
    3224:	003f6306 	br	2fb4 <_strtod_r+0x12f4>
    3228:	8009883a 	mov	r4,r16
    322c:	01400074 	movhi	r5,1
    3230:	297dbd04 	addi	r5,r5,-2316
    3234:	d9800d04 	addi	r6,sp,52
    3238:	00085440 	call	8544 <__hexnan>
    323c:	00c00144 	movi	r3,5
    3240:	10ffb91e 	bne	r2,r3,3128 <_strtod_r+0x1468>
    3244:	d8800e17 	ldw	r2,56(sp)
    3248:	d9c00d17 	ldw	r7,52(sp)
    324c:	119ffc34 	orhi	r6,r2,32752
    3250:	e1800115 	stw	r6,4(fp)
    3254:	e1c00015 	stw	r7,0(fp)
    3258:	003b2306 	br	1ee8 <_strtod_r+0x228>
    325c:	18fff804 	addi	r3,r3,-32
    3260:	00bfffc4 	movi	r2,-1
    3264:	10c4983a 	sll	r2,r2,r3
    3268:	208c703a 	and	r6,r4,r2
    326c:	e1800115 	stw	r6,4(fp)
    3270:	003f7106 	br	3038 <_strtod_r+0x1378>
    3274:	00bfffc4 	movi	r2,-1
    3278:	10c4983a 	sll	r2,r2,r3
    327c:	e0c00017 	ldw	r3,0(fp)
    3280:	188e703a 	and	r7,r3,r2
    3284:	e1c00015 	stw	r7,0(fp)
    3288:	003f6b06 	br	3038 <_strtod_r+0x1378>

0000328c <strtof>:
    328c:	defffa04 	addi	sp,sp,-24
    3290:	dd000415 	stw	r20,16(sp)
    3294:	05000074 	movhi	r20,1
    3298:	a5037004 	addi	r20,r20,3520
    329c:	2007883a 	mov	r3,r4
    32a0:	a1000017 	ldw	r4,0(r20)
    32a4:	280d883a 	mov	r6,r5
    32a8:	180b883a 	mov	r5,r3
    32ac:	dfc00515 	stw	ra,20(sp)
    32b0:	dcc00315 	stw	r19,12(sp)
    32b4:	dc800215 	stw	r18,8(sp)
    32b8:	dc400115 	stw	r17,4(sp)
    32bc:	dc000015 	stw	r16,0(sp)
    32c0:	0001cc00 	call	1cc0 <_strtod_r>
    32c4:	180b883a 	mov	r5,r3
    32c8:	1009883a 	mov	r4,r2
    32cc:	1823883a 	mov	r17,r3
    32d0:	1021883a 	mov	r16,r2
    32d4:	00007400 	call	740 <__truncdfsf2>
    32d8:	1009883a 	mov	r4,r2
    32dc:	000b883a 	mov	r5,zero
    32e0:	1025883a 	mov	r18,r2
    32e4:	1027883a 	mov	r19,r2
    32e8:	000bc7c0 	call	bc7c <__nesf2>
    32ec:	000d883a 	mov	r6,zero
    32f0:	000f883a 	mov	r7,zero
    32f4:	8009883a 	mov	r4,r16
    32f8:	880b883a 	mov	r5,r17
    32fc:	10000e1e 	bne	r2,zero,3338 <strtof+0xac>
    3300:	000c98c0 	call	c98c <__nedf2>
    3304:	10000c26 	beq	r2,zero,3338 <strtof+0xac>
    3308:	a0c00017 	ldw	r3,0(r20)
    330c:	00800884 	movi	r2,34
    3310:	18800015 	stw	r2,0(r3)
    3314:	9805883a 	mov	r2,r19
    3318:	dfc00517 	ldw	ra,20(sp)
    331c:	dd000417 	ldw	r20,16(sp)
    3320:	dcc00317 	ldw	r19,12(sp)
    3324:	dc800217 	ldw	r18,8(sp)
    3328:	dc400117 	ldw	r17,4(sp)
    332c:	dc000017 	ldw	r16,0(sp)
    3330:	dec00604 	addi	sp,sp,24
    3334:	f800283a 	ret
    3338:	9009883a 	mov	r4,r18
    333c:	015fe034 	movhi	r5,32640
    3340:	297fffc4 	addi	r5,r5,-1
    3344:	000bcf40 	call	bcf4 <__gtsf2>
    3348:	00ffffc4 	movi	r3,-1
    334c:	011ffc34 	movhi	r4,32752
    3350:	213fffc4 	addi	r4,r4,-1
    3354:	200f883a 	mov	r7,r4
    3358:	180d883a 	mov	r6,r3
    335c:	8009883a 	mov	r4,r16
    3360:	880b883a 	mov	r5,r17
    3364:	00800f16 	blt	zero,r2,33a4 <strtof+0x118>
    3368:	9009883a 	mov	r4,r18
    336c:	017fe034 	movhi	r5,65408
    3370:	297fffc4 	addi	r5,r5,-1
    3374:	000bd6c0 	call	bd6c <__ltsf2>
    3378:	023fffc4 	movi	r8,-1
    337c:	027ffc34 	movhi	r9,65520
    3380:	4a7fffc4 	addi	r9,r9,-1
    3384:	880b883a 	mov	r5,r17
    3388:	480f883a 	mov	r7,r9
    338c:	8009883a 	mov	r4,r16
    3390:	400d883a 	mov	r6,r8
    3394:	103fdf0e 	bge	r2,zero,3314 <strtof+0x88>
    3398:	000cb240 	call	cb24 <__ltdf2>
    339c:	103fda0e 	bge	r2,zero,3308 <strtof+0x7c>
    33a0:	003fdc06 	br	3314 <strtof+0x88>
    33a4:	000ca140 	call	ca14 <__gtdf2>
    33a8:	00bfd70e 	bge	zero,r2,3308 <strtof+0x7c>
    33ac:	003fee06 	br	3368 <strtof+0xdc>

000033b0 <strtod>:
    33b0:	01800074 	movhi	r6,1
    33b4:	31837004 	addi	r6,r6,3520
    33b8:	2007883a 	mov	r3,r4
    33bc:	31000017 	ldw	r4,0(r6)
    33c0:	280d883a 	mov	r6,r5
    33c4:	180b883a 	mov	r5,r3
    33c8:	0001cc01 	jmpi	1cc0 <_strtod_r>

000033cc <__sprint_r>:
    33cc:	30800217 	ldw	r2,8(r6)
    33d0:	defffe04 	addi	sp,sp,-8
    33d4:	dc000015 	stw	r16,0(sp)
    33d8:	dfc00115 	stw	ra,4(sp)
    33dc:	3021883a 	mov	r16,r6
    33e0:	0007883a 	mov	r3,zero
    33e4:	1000061e 	bne	r2,zero,3400 <__sprint_r+0x34>
    33e8:	1805883a 	mov	r2,r3
    33ec:	30000115 	stw	zero,4(r6)
    33f0:	dfc00117 	ldw	ra,4(sp)
    33f4:	dc000017 	ldw	r16,0(sp)
    33f8:	dec00204 	addi	sp,sp,8
    33fc:	f800283a 	ret
    3400:	00075a40 	call	75a4 <__sfvwrite_r>
    3404:	1007883a 	mov	r3,r2
    3408:	1805883a 	mov	r2,r3
    340c:	80000115 	stw	zero,4(r16)
    3410:	80000215 	stw	zero,8(r16)
    3414:	dfc00117 	ldw	ra,4(sp)
    3418:	dc000017 	ldw	r16,0(sp)
    341c:	dec00204 	addi	sp,sp,8
    3420:	f800283a 	ret

00003424 <___vfprintf_internal_r>:
    3424:	defea304 	addi	sp,sp,-1396
    3428:	dd815915 	stw	r22,1380(sp)
    342c:	dc015315 	stw	r16,1356(sp)
    3430:	d9c15215 	stw	r7,1352(sp)
    3434:	dfc15c15 	stw	ra,1392(sp)
    3438:	df015b15 	stw	fp,1388(sp)
    343c:	ddc15a15 	stw	r23,1384(sp)
    3440:	dd415815 	stw	r21,1376(sp)
    3444:	dd015715 	stw	r20,1372(sp)
    3448:	dcc15615 	stw	r19,1368(sp)
    344c:	dc815515 	stw	r18,1364(sp)
    3450:	dc415415 	stw	r17,1360(sp)
    3454:	282d883a 	mov	r22,r5
    3458:	3021883a 	mov	r16,r6
    345c:	d9015015 	stw	r4,1344(sp)
    3460:	00087940 	call	8794 <_localeconv_r>
    3464:	10800017 	ldw	r2,0(r2)
    3468:	d9c15217 	ldw	r7,1352(sp)
    346c:	d8814a15 	stw	r2,1320(sp)
    3470:	d8815017 	ldw	r2,1344(sp)
    3474:	10000226 	beq	r2,zero,3480 <___vfprintf_internal_r+0x5c>
    3478:	10800e17 	ldw	r2,56(r2)
    347c:	10020d26 	beq	r2,zero,3cb4 <___vfprintf_internal_r+0x890>
    3480:	b080030b 	ldhu	r2,12(r22)
    3484:	1080020c 	andi	r2,r2,8
    3488:	10020e26 	beq	r2,zero,3cc4 <___vfprintf_internal_r+0x8a0>
    348c:	b0800417 	ldw	r2,16(r22)
    3490:	10020c26 	beq	r2,zero,3cc4 <___vfprintf_internal_r+0x8a0>
    3494:	b200030b 	ldhu	r8,12(r22)
    3498:	00800284 	movi	r2,10
    349c:	40c0068c 	andi	r3,r8,26
    34a0:	18802f1e 	bne	r3,r2,3560 <___vfprintf_internal_r+0x13c>
    34a4:	b080038f 	ldh	r2,14(r22)
    34a8:	10002d16 	blt	r2,zero,3560 <___vfprintf_internal_r+0x13c>
    34ac:	b240038b 	ldhu	r9,14(r22)
    34b0:	b2800717 	ldw	r10,28(r22)
    34b4:	b2c00917 	ldw	r11,36(r22)
    34b8:	d9015017 	ldw	r4,1344(sp)
    34bc:	dc402a04 	addi	r17,sp,168
    34c0:	d8804104 	addi	r2,sp,260
    34c4:	00c10004 	movi	r3,1024
    34c8:	423fff4c 	andi	r8,r8,65533
    34cc:	800d883a 	mov	r6,r16
    34d0:	880b883a 	mov	r5,r17
    34d4:	da002d0d 	sth	r8,180(sp)
    34d8:	da402d8d 	sth	r9,182(sp)
    34dc:	da803115 	stw	r10,196(sp)
    34e0:	dac03315 	stw	r11,204(sp)
    34e4:	d8802e15 	stw	r2,184(sp)
    34e8:	d8c02f15 	stw	r3,188(sp)
    34ec:	d8802a15 	stw	r2,168(sp)
    34f0:	d8c02c15 	stw	r3,176(sp)
    34f4:	d8003015 	stw	zero,192(sp)
    34f8:	00034240 	call	3424 <___vfprintf_internal_r>
    34fc:	d8814c15 	stw	r2,1328(sp)
    3500:	10000416 	blt	r2,zero,3514 <___vfprintf_internal_r+0xf0>
    3504:	d9015017 	ldw	r4,1344(sp)
    3508:	880b883a 	mov	r5,r17
    350c:	0006c400 	call	6c40 <_fflush_r>
    3510:	1002321e 	bne	r2,zero,3ddc <___vfprintf_internal_r+0x9b8>
    3514:	d8802d0b 	ldhu	r2,180(sp)
    3518:	1080100c 	andi	r2,r2,64
    351c:	10000326 	beq	r2,zero,352c <___vfprintf_internal_r+0x108>
    3520:	b080030b 	ldhu	r2,12(r22)
    3524:	10801014 	ori	r2,r2,64
    3528:	b080030d 	sth	r2,12(r22)
    352c:	d8814c17 	ldw	r2,1328(sp)
    3530:	dfc15c17 	ldw	ra,1392(sp)
    3534:	df015b17 	ldw	fp,1388(sp)
    3538:	ddc15a17 	ldw	r23,1384(sp)
    353c:	dd815917 	ldw	r22,1380(sp)
    3540:	dd415817 	ldw	r21,1376(sp)
    3544:	dd015717 	ldw	r20,1372(sp)
    3548:	dcc15617 	ldw	r19,1368(sp)
    354c:	dc815517 	ldw	r18,1364(sp)
    3550:	dc415417 	ldw	r17,1360(sp)
    3554:	dc015317 	ldw	r16,1356(sp)
    3558:	dec15d04 	addi	sp,sp,1396
    355c:	f800283a 	ret
    3560:	0005883a 	mov	r2,zero
    3564:	0007883a 	mov	r3,zero
    3568:	dd401a04 	addi	r21,sp,104
    356c:	d8814315 	stw	r2,1292(sp)
    3570:	802f883a 	mov	r23,r16
    3574:	d8c14415 	stw	r3,1296(sp)
    3578:	d8014c15 	stw	zero,1328(sp)
    357c:	d8014915 	stw	zero,1316(sp)
    3580:	d8014515 	stw	zero,1300(sp)
    3584:	d8014815 	stw	zero,1312(sp)
    3588:	dd400d15 	stw	r21,52(sp)
    358c:	d8000f15 	stw	zero,60(sp)
    3590:	d8000e15 	stw	zero,56(sp)
    3594:	b8800007 	ldb	r2,0(r23)
    3598:	10001926 	beq	r2,zero,3600 <___vfprintf_internal_r+0x1dc>
    359c:	00c00944 	movi	r3,37
    35a0:	10c01726 	beq	r2,r3,3600 <___vfprintf_internal_r+0x1dc>
    35a4:	b821883a 	mov	r16,r23
    35a8:	00000106 	br	35b0 <___vfprintf_internal_r+0x18c>
    35ac:	10c00326 	beq	r2,r3,35bc <___vfprintf_internal_r+0x198>
    35b0:	84000044 	addi	r16,r16,1
    35b4:	80800007 	ldb	r2,0(r16)
    35b8:	103ffc1e 	bne	r2,zero,35ac <___vfprintf_internal_r+0x188>
    35bc:	85e7c83a 	sub	r19,r16,r23
    35c0:	98000e26 	beq	r19,zero,35fc <___vfprintf_internal_r+0x1d8>
    35c4:	dc800f17 	ldw	r18,60(sp)
    35c8:	dc400e17 	ldw	r17,56(sp)
    35cc:	008001c4 	movi	r2,7
    35d0:	94e5883a 	add	r18,r18,r19
    35d4:	8c400044 	addi	r17,r17,1
    35d8:	adc00015 	stw	r23,0(r21)
    35dc:	dc800f15 	stw	r18,60(sp)
    35e0:	acc00115 	stw	r19,4(r21)
    35e4:	dc400e15 	stw	r17,56(sp)
    35e8:	14428b16 	blt	r2,r17,4018 <___vfprintf_internal_r+0xbf4>
    35ec:	ad400204 	addi	r21,r21,8
    35f0:	d9014c17 	ldw	r4,1328(sp)
    35f4:	24c9883a 	add	r4,r4,r19
    35f8:	d9014c15 	stw	r4,1328(sp)
    35fc:	802f883a 	mov	r23,r16
    3600:	b8800007 	ldb	r2,0(r23)
    3604:	10013c26 	beq	r2,zero,3af8 <___vfprintf_internal_r+0x6d4>
    3608:	bdc00044 	addi	r23,r23,1
    360c:	d8000405 	stb	zero,16(sp)
    3610:	b8c00007 	ldb	r3,0(r23)
    3614:	04ffffc4 	movi	r19,-1
    3618:	d8014d15 	stw	zero,1332(sp)
    361c:	d8014b15 	stw	zero,1324(sp)
    3620:	d8c14e15 	stw	r3,1336(sp)
    3624:	bdc00044 	addi	r23,r23,1
    3628:	d9414e17 	ldw	r5,1336(sp)
    362c:	00801604 	movi	r2,88
    3630:	28fff804 	addi	r3,r5,-32
    3634:	10c06036 	bltu	r2,r3,37b8 <___vfprintf_internal_r+0x394>
    3638:	18c5883a 	add	r2,r3,r3
    363c:	1085883a 	add	r2,r2,r2
    3640:	00c00034 	movhi	r3,0
    3644:	18cd9504 	addi	r3,r3,13908
    3648:	10c5883a 	add	r2,r2,r3
    364c:	11000017 	ldw	r4,0(r2)
    3650:	2000683a 	jmp	r4
    3654:	000045c8 	cmpgei	zero,zero,279
    3658:	000037b8 	rdprs	zero,zero,222
    365c:	000037b8 	rdprs	zero,zero,222
    3660:	000045b4 	movhi	zero,278
    3664:	000037b8 	rdprs	zero,zero,222
    3668:	000037b8 	rdprs	zero,zero,222
    366c:	000037b8 	rdprs	zero,zero,222
    3670:	000037b8 	rdprs	zero,zero,222
    3674:	000037b8 	rdprs	zero,zero,222
    3678:	000037b8 	rdprs	zero,zero,222
    367c:	00004394 	movui	zero,270
    3680:	000045a4 	muli	zero,zero,278
    3684:	000037b8 	rdprs	zero,zero,222
    3688:	000043ac 	andhi	zero,zero,270
    368c:	0000464c 	andi	zero,zero,281
    3690:	000037b8 	rdprs	zero,zero,222
    3694:	00004638 	rdprs	zero,zero,280
    3698:	000045f4 	movhi	zero,279
    369c:	000045f4 	movhi	zero,279
    36a0:	000045f4 	movhi	zero,279
    36a4:	000045f4 	movhi	zero,279
    36a8:	000045f4 	movhi	zero,279
    36ac:	000045f4 	movhi	zero,279
    36b0:	000045f4 	movhi	zero,279
    36b4:	000045f4 	movhi	zero,279
    36b8:	000045f4 	movhi	zero,279
    36bc:	000037b8 	rdprs	zero,zero,222
    36c0:	000037b8 	rdprs	zero,zero,222
    36c4:	000037b8 	rdprs	zero,zero,222
    36c8:	000037b8 	rdprs	zero,zero,222
    36cc:	000037b8 	rdprs	zero,zero,222
    36d0:	000037b8 	rdprs	zero,zero,222
    36d4:	000037b8 	rdprs	zero,zero,222
    36d8:	000037b8 	rdprs	zero,zero,222
    36dc:	000037b8 	rdprs	zero,zero,222
    36e0:	000037b8 	rdprs	zero,zero,222
    36e4:	00003e10 	cmplti	zero,zero,248
    36e8:	0000447c 	xorhi	zero,zero,273
    36ec:	000037b8 	rdprs	zero,zero,222
    36f0:	0000447c 	xorhi	zero,zero,273
    36f4:	000037b8 	rdprs	zero,zero,222
    36f8:	000037b8 	rdprs	zero,zero,222
    36fc:	000037b8 	rdprs	zero,zero,222
    3700:	000037b8 	rdprs	zero,zero,222
    3704:	000045e0 	cmpeqi	zero,zero,279
    3708:	000037b8 	rdprs	zero,zero,222
    370c:	000037b8 	rdprs	zero,zero,222
    3710:	00003ec4 	movi	zero,251
    3714:	000037b8 	rdprs	zero,zero,222
    3718:	000037b8 	rdprs	zero,zero,222
    371c:	000037b8 	rdprs	zero,zero,222
    3720:	000037b8 	rdprs	zero,zero,222
    3724:	000037b8 	rdprs	zero,zero,222
    3728:	00003f10 	cmplti	zero,zero,252
    372c:	000037b8 	rdprs	zero,zero,222
    3730:	000037b8 	rdprs	zero,zero,222
    3734:	00004530 	cmpltui	zero,zero,276
    3738:	000037b8 	rdprs	zero,zero,222
    373c:	000037b8 	rdprs	zero,zero,222
    3740:	000037b8 	rdprs	zero,zero,222
    3744:	000037b8 	rdprs	zero,zero,222
    3748:	000037b8 	rdprs	zero,zero,222
    374c:	000037b8 	rdprs	zero,zero,222
    3750:	000037b8 	rdprs	zero,zero,222
    3754:	000037b8 	rdprs	zero,zero,222
    3758:	000037b8 	rdprs	zero,zero,222
    375c:	000037b8 	rdprs	zero,zero,222
    3760:	00004504 	movi	zero,276
    3764:	00003e1c 	xori	zero,zero,248
    3768:	0000447c 	xorhi	zero,zero,273
    376c:	0000447c 	xorhi	zero,zero,273
    3770:	0000447c 	xorhi	zero,zero,273
    3774:	00004468 	cmpgeui	zero,zero,273
    3778:	00003e1c 	xori	zero,zero,248
    377c:	000037b8 	rdprs	zero,zero,222
    3780:	000037b8 	rdprs	zero,zero,222
    3784:	000043f0 	cmpltui	zero,zero,271
    3788:	000037b8 	rdprs	zero,zero,222
    378c:	000043c0 	call	43c <main+0x274>
    3790:	00003ed0 	cmplti	zero,zero,251
    3794:	00004420 	cmpeqi	zero,zero,272
    3798:	0000440c 	andi	zero,zero,272
    379c:	000037b8 	rdprs	zero,zero,222
    37a0:	000046b4 	movhi	zero,282
    37a4:	000037b8 	rdprs	zero,zero,222
    37a8:	00003f1c 	xori	zero,zero,252
    37ac:	000037b8 	rdprs	zero,zero,222
    37b0:	000037b8 	rdprs	zero,zero,222
    37b4:	00004594 	movui	zero,278
    37b8:	d9014e17 	ldw	r4,1336(sp)
    37bc:	2000ce26 	beq	r4,zero,3af8 <___vfprintf_internal_r+0x6d4>
    37c0:	01400044 	movi	r5,1
    37c4:	d9801004 	addi	r6,sp,64
    37c8:	d9c14115 	stw	r7,1284(sp)
    37cc:	d9414615 	stw	r5,1304(sp)
    37d0:	d9814215 	stw	r6,1288(sp)
    37d4:	280f883a 	mov	r7,r5
    37d8:	d9001005 	stb	r4,64(sp)
    37dc:	d8000405 	stb	zero,16(sp)
    37e0:	d8014715 	stw	zero,1308(sp)
    37e4:	d8c14d17 	ldw	r3,1332(sp)
    37e8:	1880008c 	andi	r2,r3,2
    37ec:	1005003a 	cmpeq	r2,r2,zero
    37f0:	d8815115 	stw	r2,1348(sp)
    37f4:	1000031e 	bne	r2,zero,3804 <___vfprintf_internal_r+0x3e0>
    37f8:	d9014617 	ldw	r4,1304(sp)
    37fc:	21000084 	addi	r4,r4,2
    3800:	d9014615 	stw	r4,1304(sp)
    3804:	d9414d17 	ldw	r5,1332(sp)
    3808:	2940210c 	andi	r5,r5,132
    380c:	d9414f15 	stw	r5,1340(sp)
    3810:	28002d1e 	bne	r5,zero,38c8 <___vfprintf_internal_r+0x4a4>
    3814:	d9814b17 	ldw	r6,1324(sp)
    3818:	d8814617 	ldw	r2,1304(sp)
    381c:	30a1c83a 	sub	r16,r6,r2
    3820:	0400290e 	bge	zero,r16,38c8 <___vfprintf_internal_r+0x4a4>
    3824:	00800404 	movi	r2,16
    3828:	14045e0e 	bge	r2,r16,49a4 <___vfprintf_internal_r+0x1580>
    382c:	dc800f17 	ldw	r18,60(sp)
    3830:	dc400e17 	ldw	r17,56(sp)
    3834:	1027883a 	mov	r19,r2
    3838:	07000074 	movhi	fp,1
    383c:	e73bf904 	addi	fp,fp,-4124
    3840:	050001c4 	movi	r20,7
    3844:	00000306 	br	3854 <___vfprintf_internal_r+0x430>
    3848:	843ffc04 	addi	r16,r16,-16
    384c:	ad400204 	addi	r21,r21,8
    3850:	9c00130e 	bge	r19,r16,38a0 <___vfprintf_internal_r+0x47c>
    3854:	94800404 	addi	r18,r18,16
    3858:	8c400044 	addi	r17,r17,1
    385c:	af000015 	stw	fp,0(r21)
    3860:	acc00115 	stw	r19,4(r21)
    3864:	dc800f15 	stw	r18,60(sp)
    3868:	dc400e15 	stw	r17,56(sp)
    386c:	a47ff60e 	bge	r20,r17,3848 <___vfprintf_internal_r+0x424>
    3870:	d9015017 	ldw	r4,1344(sp)
    3874:	b00b883a 	mov	r5,r22
    3878:	d9800d04 	addi	r6,sp,52
    387c:	d9c15215 	stw	r7,1352(sp)
    3880:	00033cc0 	call	33cc <__sprint_r>
    3884:	d9c15217 	ldw	r7,1352(sp)
    3888:	10009e1e 	bne	r2,zero,3b04 <___vfprintf_internal_r+0x6e0>
    388c:	843ffc04 	addi	r16,r16,-16
    3890:	dc800f17 	ldw	r18,60(sp)
    3894:	dc400e17 	ldw	r17,56(sp)
    3898:	dd401a04 	addi	r21,sp,104
    389c:	9c3fed16 	blt	r19,r16,3854 <___vfprintf_internal_r+0x430>
    38a0:	9425883a 	add	r18,r18,r16
    38a4:	8c400044 	addi	r17,r17,1
    38a8:	008001c4 	movi	r2,7
    38ac:	af000015 	stw	fp,0(r21)
    38b0:	ac000115 	stw	r16,4(r21)
    38b4:	dc800f15 	stw	r18,60(sp)
    38b8:	dc400e15 	stw	r17,56(sp)
    38bc:	1441f516 	blt	r2,r17,4094 <___vfprintf_internal_r+0xc70>
    38c0:	ad400204 	addi	r21,r21,8
    38c4:	00000206 	br	38d0 <___vfprintf_internal_r+0x4ac>
    38c8:	dc800f17 	ldw	r18,60(sp)
    38cc:	dc400e17 	ldw	r17,56(sp)
    38d0:	d8800407 	ldb	r2,16(sp)
    38d4:	10000b26 	beq	r2,zero,3904 <___vfprintf_internal_r+0x4e0>
    38d8:	00800044 	movi	r2,1
    38dc:	94800044 	addi	r18,r18,1
    38e0:	8c400044 	addi	r17,r17,1
    38e4:	a8800115 	stw	r2,4(r21)
    38e8:	d8c00404 	addi	r3,sp,16
    38ec:	008001c4 	movi	r2,7
    38f0:	a8c00015 	stw	r3,0(r21)
    38f4:	dc800f15 	stw	r18,60(sp)
    38f8:	dc400e15 	stw	r17,56(sp)
    38fc:	1441da16 	blt	r2,r17,4068 <___vfprintf_internal_r+0xc44>
    3900:	ad400204 	addi	r21,r21,8
    3904:	d9015117 	ldw	r4,1348(sp)
    3908:	20000b1e 	bne	r4,zero,3938 <___vfprintf_internal_r+0x514>
    390c:	d8800504 	addi	r2,sp,20
    3910:	94800084 	addi	r18,r18,2
    3914:	8c400044 	addi	r17,r17,1
    3918:	a8800015 	stw	r2,0(r21)
    391c:	00c00084 	movi	r3,2
    3920:	008001c4 	movi	r2,7
    3924:	a8c00115 	stw	r3,4(r21)
    3928:	dc800f15 	stw	r18,60(sp)
    392c:	dc400e15 	stw	r17,56(sp)
    3930:	1441c216 	blt	r2,r17,403c <___vfprintf_internal_r+0xc18>
    3934:	ad400204 	addi	r21,r21,8
    3938:	d9414f17 	ldw	r5,1340(sp)
    393c:	00802004 	movi	r2,128
    3940:	2880b126 	beq	r5,r2,3c08 <___vfprintf_internal_r+0x7e4>
    3944:	d8c14717 	ldw	r3,1308(sp)
    3948:	19e1c83a 	sub	r16,r3,r7
    394c:	0400260e 	bge	zero,r16,39e8 <___vfprintf_internal_r+0x5c4>
    3950:	00800404 	movi	r2,16
    3954:	1403cf0e 	bge	r2,r16,4894 <___vfprintf_internal_r+0x1470>
    3958:	1027883a 	mov	r19,r2
    395c:	07000074 	movhi	fp,1
    3960:	e73bf504 	addi	fp,fp,-4140
    3964:	050001c4 	movi	r20,7
    3968:	00000306 	br	3978 <___vfprintf_internal_r+0x554>
    396c:	843ffc04 	addi	r16,r16,-16
    3970:	ad400204 	addi	r21,r21,8
    3974:	9c00130e 	bge	r19,r16,39c4 <___vfprintf_internal_r+0x5a0>
    3978:	94800404 	addi	r18,r18,16
    397c:	8c400044 	addi	r17,r17,1
    3980:	af000015 	stw	fp,0(r21)
    3984:	acc00115 	stw	r19,4(r21)
    3988:	dc800f15 	stw	r18,60(sp)
    398c:	dc400e15 	stw	r17,56(sp)
    3990:	a47ff60e 	bge	r20,r17,396c <___vfprintf_internal_r+0x548>
    3994:	d9015017 	ldw	r4,1344(sp)
    3998:	b00b883a 	mov	r5,r22
    399c:	d9800d04 	addi	r6,sp,52
    39a0:	d9c15215 	stw	r7,1352(sp)
    39a4:	00033cc0 	call	33cc <__sprint_r>
    39a8:	d9c15217 	ldw	r7,1352(sp)
    39ac:	1000551e 	bne	r2,zero,3b04 <___vfprintf_internal_r+0x6e0>
    39b0:	843ffc04 	addi	r16,r16,-16
    39b4:	dc800f17 	ldw	r18,60(sp)
    39b8:	dc400e17 	ldw	r17,56(sp)
    39bc:	dd401a04 	addi	r21,sp,104
    39c0:	9c3fed16 	blt	r19,r16,3978 <___vfprintf_internal_r+0x554>
    39c4:	9425883a 	add	r18,r18,r16
    39c8:	8c400044 	addi	r17,r17,1
    39cc:	008001c4 	movi	r2,7
    39d0:	af000015 	stw	fp,0(r21)
    39d4:	ac000115 	stw	r16,4(r21)
    39d8:	dc800f15 	stw	r18,60(sp)
    39dc:	dc400e15 	stw	r17,56(sp)
    39e0:	14418216 	blt	r2,r17,3fec <___vfprintf_internal_r+0xbc8>
    39e4:	ad400204 	addi	r21,r21,8
    39e8:	d9014d17 	ldw	r4,1332(sp)
    39ec:	2080400c 	andi	r2,r4,256
    39f0:	10004a1e 	bne	r2,zero,3b1c <___vfprintf_internal_r+0x6f8>
    39f4:	d9414217 	ldw	r5,1288(sp)
    39f8:	91e5883a 	add	r18,r18,r7
    39fc:	8c400044 	addi	r17,r17,1
    3a00:	008001c4 	movi	r2,7
    3a04:	a9400015 	stw	r5,0(r21)
    3a08:	a9c00115 	stw	r7,4(r21)
    3a0c:	dc800f15 	stw	r18,60(sp)
    3a10:	dc400e15 	stw	r17,56(sp)
    3a14:	14416716 	blt	r2,r17,3fb4 <___vfprintf_internal_r+0xb90>
    3a18:	a8c00204 	addi	r3,r21,8
    3a1c:	d9814d17 	ldw	r6,1332(sp)
    3a20:	3080010c 	andi	r2,r6,4
    3a24:	10002826 	beq	r2,zero,3ac8 <___vfprintf_internal_r+0x6a4>
    3a28:	d8814b17 	ldw	r2,1324(sp)
    3a2c:	d9014617 	ldw	r4,1304(sp)
    3a30:	1121c83a 	sub	r16,r2,r4
    3a34:	0400240e 	bge	zero,r16,3ac8 <___vfprintf_internal_r+0x6a4>
    3a38:	00800404 	movi	r2,16
    3a3c:	1404550e 	bge	r2,r16,4b94 <___vfprintf_internal_r+0x1770>
    3a40:	dc400e17 	ldw	r17,56(sp)
    3a44:	1027883a 	mov	r19,r2
    3a48:	07000074 	movhi	fp,1
    3a4c:	e73bf904 	addi	fp,fp,-4124
    3a50:	050001c4 	movi	r20,7
    3a54:	00000306 	br	3a64 <___vfprintf_internal_r+0x640>
    3a58:	843ffc04 	addi	r16,r16,-16
    3a5c:	18c00204 	addi	r3,r3,8
    3a60:	9c00110e 	bge	r19,r16,3aa8 <___vfprintf_internal_r+0x684>
    3a64:	94800404 	addi	r18,r18,16
    3a68:	8c400044 	addi	r17,r17,1
    3a6c:	1f000015 	stw	fp,0(r3)
    3a70:	1cc00115 	stw	r19,4(r3)
    3a74:	dc800f15 	stw	r18,60(sp)
    3a78:	dc400e15 	stw	r17,56(sp)
    3a7c:	a47ff60e 	bge	r20,r17,3a58 <___vfprintf_internal_r+0x634>
    3a80:	d9015017 	ldw	r4,1344(sp)
    3a84:	b00b883a 	mov	r5,r22
    3a88:	d9800d04 	addi	r6,sp,52
    3a8c:	00033cc0 	call	33cc <__sprint_r>
    3a90:	10001c1e 	bne	r2,zero,3b04 <___vfprintf_internal_r+0x6e0>
    3a94:	843ffc04 	addi	r16,r16,-16
    3a98:	dc800f17 	ldw	r18,60(sp)
    3a9c:	dc400e17 	ldw	r17,56(sp)
    3aa0:	d8c01a04 	addi	r3,sp,104
    3aa4:	9c3fef16 	blt	r19,r16,3a64 <___vfprintf_internal_r+0x640>
    3aa8:	9425883a 	add	r18,r18,r16
    3aac:	8c400044 	addi	r17,r17,1
    3ab0:	008001c4 	movi	r2,7
    3ab4:	1f000015 	stw	fp,0(r3)
    3ab8:	1c000115 	stw	r16,4(r3)
    3abc:	dc800f15 	stw	r18,60(sp)
    3ac0:	dc400e15 	stw	r17,56(sp)
    3ac4:	1440cb16 	blt	r2,r17,3df4 <___vfprintf_internal_r+0x9d0>
    3ac8:	d8814b17 	ldw	r2,1324(sp)
    3acc:	d9414617 	ldw	r5,1304(sp)
    3ad0:	1140010e 	bge	r2,r5,3ad8 <___vfprintf_internal_r+0x6b4>
    3ad4:	2805883a 	mov	r2,r5
    3ad8:	d9814c17 	ldw	r6,1328(sp)
    3adc:	308d883a 	add	r6,r6,r2
    3ae0:	d9814c15 	stw	r6,1328(sp)
    3ae4:	90013b1e 	bne	r18,zero,3fd4 <___vfprintf_internal_r+0xbb0>
    3ae8:	d9c14117 	ldw	r7,1284(sp)
    3aec:	dd401a04 	addi	r21,sp,104
    3af0:	d8000e15 	stw	zero,56(sp)
    3af4:	003ea706 	br	3594 <___vfprintf_internal_r+0x170>
    3af8:	d8800f17 	ldw	r2,60(sp)
    3afc:	1005451e 	bne	r2,zero,5014 <___vfprintf_internal_r+0x1bf0>
    3b00:	d8000e15 	stw	zero,56(sp)
    3b04:	b080030b 	ldhu	r2,12(r22)
    3b08:	1080100c 	andi	r2,r2,64
    3b0c:	103e8726 	beq	r2,zero,352c <___vfprintf_internal_r+0x108>
    3b10:	00bfffc4 	movi	r2,-1
    3b14:	d8814c15 	stw	r2,1328(sp)
    3b18:	003e8406 	br	352c <___vfprintf_internal_r+0x108>
    3b1c:	d9814e17 	ldw	r6,1336(sp)
    3b20:	00801944 	movi	r2,101
    3b24:	11806e16 	blt	r2,r6,3ce0 <___vfprintf_internal_r+0x8bc>
    3b28:	d9414817 	ldw	r5,1312(sp)
    3b2c:	00c00044 	movi	r3,1
    3b30:	1943490e 	bge	r3,r5,4858 <___vfprintf_internal_r+0x1434>
    3b34:	d8814217 	ldw	r2,1288(sp)
    3b38:	94800044 	addi	r18,r18,1
    3b3c:	8c400044 	addi	r17,r17,1
    3b40:	a8800015 	stw	r2,0(r21)
    3b44:	008001c4 	movi	r2,7
    3b48:	a8c00115 	stw	r3,4(r21)
    3b4c:	dc800f15 	stw	r18,60(sp)
    3b50:	dc400e15 	stw	r17,56(sp)
    3b54:	1441ca16 	blt	r2,r17,4280 <___vfprintf_internal_r+0xe5c>
    3b58:	a8c00204 	addi	r3,r21,8
    3b5c:	d9014a17 	ldw	r4,1320(sp)
    3b60:	00800044 	movi	r2,1
    3b64:	94800044 	addi	r18,r18,1
    3b68:	8c400044 	addi	r17,r17,1
    3b6c:	18800115 	stw	r2,4(r3)
    3b70:	008001c4 	movi	r2,7
    3b74:	19000015 	stw	r4,0(r3)
    3b78:	dc800f15 	stw	r18,60(sp)
    3b7c:	dc400e15 	stw	r17,56(sp)
    3b80:	1441b616 	blt	r2,r17,425c <___vfprintf_internal_r+0xe38>
    3b84:	1cc00204 	addi	r19,r3,8
    3b88:	d9014317 	ldw	r4,1292(sp)
    3b8c:	d9414417 	ldw	r5,1296(sp)
    3b90:	000d883a 	mov	r6,zero
    3b94:	000f883a 	mov	r7,zero
    3b98:	000c98c0 	call	c98c <__nedf2>
    3b9c:	10017426 	beq	r2,zero,4170 <___vfprintf_internal_r+0xd4c>
    3ba0:	d9414817 	ldw	r5,1312(sp)
    3ba4:	d9814217 	ldw	r6,1288(sp)
    3ba8:	8c400044 	addi	r17,r17,1
    3bac:	2c85883a 	add	r2,r5,r18
    3bb0:	14bfffc4 	addi	r18,r2,-1
    3bb4:	28bfffc4 	addi	r2,r5,-1
    3bb8:	30c00044 	addi	r3,r6,1
    3bbc:	98800115 	stw	r2,4(r19)
    3bc0:	008001c4 	movi	r2,7
    3bc4:	98c00015 	stw	r3,0(r19)
    3bc8:	dc800f15 	stw	r18,60(sp)
    3bcc:	dc400e15 	stw	r17,56(sp)
    3bd0:	14418e16 	blt	r2,r17,420c <___vfprintf_internal_r+0xde8>
    3bd4:	9cc00204 	addi	r19,r19,8
    3bd8:	d9414917 	ldw	r5,1316(sp)
    3bdc:	d8800904 	addi	r2,sp,36
    3be0:	8c400044 	addi	r17,r17,1
    3be4:	9165883a 	add	r18,r18,r5
    3be8:	98800015 	stw	r2,0(r19)
    3bec:	008001c4 	movi	r2,7
    3bf0:	99400115 	stw	r5,4(r19)
    3bf4:	dc800f15 	stw	r18,60(sp)
    3bf8:	dc400e15 	stw	r17,56(sp)
    3bfc:	1440ed16 	blt	r2,r17,3fb4 <___vfprintf_internal_r+0xb90>
    3c00:	98c00204 	addi	r3,r19,8
    3c04:	003f8506 	br	3a1c <___vfprintf_internal_r+0x5f8>
    3c08:	d9814b17 	ldw	r6,1324(sp)
    3c0c:	d8814617 	ldw	r2,1304(sp)
    3c10:	30a1c83a 	sub	r16,r6,r2
    3c14:	043f4b0e 	bge	zero,r16,3944 <___vfprintf_internal_r+0x520>
    3c18:	00800404 	movi	r2,16
    3c1c:	14043a0e 	bge	r2,r16,4d08 <___vfprintf_internal_r+0x18e4>
    3c20:	1027883a 	mov	r19,r2
    3c24:	07000074 	movhi	fp,1
    3c28:	e73bf504 	addi	fp,fp,-4140
    3c2c:	050001c4 	movi	r20,7
    3c30:	00000306 	br	3c40 <___vfprintf_internal_r+0x81c>
    3c34:	843ffc04 	addi	r16,r16,-16
    3c38:	ad400204 	addi	r21,r21,8
    3c3c:	9c00130e 	bge	r19,r16,3c8c <___vfprintf_internal_r+0x868>
    3c40:	94800404 	addi	r18,r18,16
    3c44:	8c400044 	addi	r17,r17,1
    3c48:	af000015 	stw	fp,0(r21)
    3c4c:	acc00115 	stw	r19,4(r21)
    3c50:	dc800f15 	stw	r18,60(sp)
    3c54:	dc400e15 	stw	r17,56(sp)
    3c58:	a47ff60e 	bge	r20,r17,3c34 <___vfprintf_internal_r+0x810>
    3c5c:	d9015017 	ldw	r4,1344(sp)
    3c60:	b00b883a 	mov	r5,r22
    3c64:	d9800d04 	addi	r6,sp,52
    3c68:	d9c15215 	stw	r7,1352(sp)
    3c6c:	00033cc0 	call	33cc <__sprint_r>
    3c70:	d9c15217 	ldw	r7,1352(sp)
    3c74:	103fa31e 	bne	r2,zero,3b04 <___vfprintf_internal_r+0x6e0>
    3c78:	843ffc04 	addi	r16,r16,-16
    3c7c:	dc800f17 	ldw	r18,60(sp)
    3c80:	dc400e17 	ldw	r17,56(sp)
    3c84:	dd401a04 	addi	r21,sp,104
    3c88:	9c3fed16 	blt	r19,r16,3c40 <___vfprintf_internal_r+0x81c>
    3c8c:	9425883a 	add	r18,r18,r16
    3c90:	8c400044 	addi	r17,r17,1
    3c94:	008001c4 	movi	r2,7
    3c98:	af000015 	stw	fp,0(r21)
    3c9c:	ac000115 	stw	r16,4(r21)
    3ca0:	dc800f15 	stw	r18,60(sp)
    3ca4:	dc400e15 	stw	r17,56(sp)
    3ca8:	14416116 	blt	r2,r17,4230 <___vfprintf_internal_r+0xe0c>
    3cac:	ad400204 	addi	r21,r21,8
    3cb0:	003f2406 	br	3944 <___vfprintf_internal_r+0x520>
    3cb4:	d9015017 	ldw	r4,1344(sp)
    3cb8:	0006ed80 	call	6ed8 <__sinit>
    3cbc:	d9c15217 	ldw	r7,1352(sp)
    3cc0:	003def06 	br	3480 <___vfprintf_internal_r+0x5c>
    3cc4:	d9015017 	ldw	r4,1344(sp)
    3cc8:	b00b883a 	mov	r5,r22
    3ccc:	d9c15215 	stw	r7,1352(sp)
    3cd0:	000530c0 	call	530c <__swsetup_r>
    3cd4:	d9c15217 	ldw	r7,1352(sp)
    3cd8:	103dee26 	beq	r2,zero,3494 <___vfprintf_internal_r+0x70>
    3cdc:	003f8c06 	br	3b10 <___vfprintf_internal_r+0x6ec>
    3ce0:	d9014317 	ldw	r4,1292(sp)
    3ce4:	d9414417 	ldw	r5,1296(sp)
    3ce8:	000d883a 	mov	r6,zero
    3cec:	000f883a 	mov	r7,zero
    3cf0:	000c9040 	call	c904 <__eqdf2>
    3cf4:	1000f21e 	bne	r2,zero,40c0 <___vfprintf_internal_r+0xc9c>
    3cf8:	00800074 	movhi	r2,1
    3cfc:	10bbf404 	addi	r2,r2,-4144
    3d00:	94800044 	addi	r18,r18,1
    3d04:	8c400044 	addi	r17,r17,1
    3d08:	a8800015 	stw	r2,0(r21)
    3d0c:	00c00044 	movi	r3,1
    3d10:	008001c4 	movi	r2,7
    3d14:	a8c00115 	stw	r3,4(r21)
    3d18:	dc800f15 	stw	r18,60(sp)
    3d1c:	dc400e15 	stw	r17,56(sp)
    3d20:	14430016 	blt	r2,r17,4924 <___vfprintf_internal_r+0x1500>
    3d24:	a8c00204 	addi	r3,r21,8
    3d28:	d8800617 	ldw	r2,24(sp)
    3d2c:	d9014817 	ldw	r4,1312(sp)
    3d30:	11015c0e 	bge	r2,r4,42a4 <___vfprintf_internal_r+0xe80>
    3d34:	dc400e17 	ldw	r17,56(sp)
    3d38:	d9814a17 	ldw	r6,1320(sp)
    3d3c:	00800044 	movi	r2,1
    3d40:	94800044 	addi	r18,r18,1
    3d44:	8c400044 	addi	r17,r17,1
    3d48:	18800115 	stw	r2,4(r3)
    3d4c:	008001c4 	movi	r2,7
    3d50:	19800015 	stw	r6,0(r3)
    3d54:	dc800f15 	stw	r18,60(sp)
    3d58:	dc400e15 	stw	r17,56(sp)
    3d5c:	14431616 	blt	r2,r17,49b8 <___vfprintf_internal_r+0x1594>
    3d60:	18c00204 	addi	r3,r3,8
    3d64:	d8814817 	ldw	r2,1312(sp)
    3d68:	143fffc4 	addi	r16,r2,-1
    3d6c:	043f2b0e 	bge	zero,r16,3a1c <___vfprintf_internal_r+0x5f8>
    3d70:	00800404 	movi	r2,16
    3d74:	1402a80e 	bge	r2,r16,4818 <___vfprintf_internal_r+0x13f4>
    3d78:	dc400e17 	ldw	r17,56(sp)
    3d7c:	1027883a 	mov	r19,r2
    3d80:	07000074 	movhi	fp,1
    3d84:	e73bf504 	addi	fp,fp,-4140
    3d88:	050001c4 	movi	r20,7
    3d8c:	00000306 	br	3d9c <___vfprintf_internal_r+0x978>
    3d90:	18c00204 	addi	r3,r3,8
    3d94:	843ffc04 	addi	r16,r16,-16
    3d98:	9c02a20e 	bge	r19,r16,4824 <___vfprintf_internal_r+0x1400>
    3d9c:	94800404 	addi	r18,r18,16
    3da0:	8c400044 	addi	r17,r17,1
    3da4:	1f000015 	stw	fp,0(r3)
    3da8:	1cc00115 	stw	r19,4(r3)
    3dac:	dc800f15 	stw	r18,60(sp)
    3db0:	dc400e15 	stw	r17,56(sp)
    3db4:	a47ff60e 	bge	r20,r17,3d90 <___vfprintf_internal_r+0x96c>
    3db8:	d9015017 	ldw	r4,1344(sp)
    3dbc:	b00b883a 	mov	r5,r22
    3dc0:	d9800d04 	addi	r6,sp,52
    3dc4:	00033cc0 	call	33cc <__sprint_r>
    3dc8:	103f4e1e 	bne	r2,zero,3b04 <___vfprintf_internal_r+0x6e0>
    3dcc:	dc800f17 	ldw	r18,60(sp)
    3dd0:	dc400e17 	ldw	r17,56(sp)
    3dd4:	d8c01a04 	addi	r3,sp,104
    3dd8:	003fee06 	br	3d94 <___vfprintf_internal_r+0x970>
    3ddc:	d8802d0b 	ldhu	r2,180(sp)
    3de0:	00ffffc4 	movi	r3,-1
    3de4:	d8c14c15 	stw	r3,1328(sp)
    3de8:	1080100c 	andi	r2,r2,64
    3dec:	103dcc1e 	bne	r2,zero,3520 <___vfprintf_internal_r+0xfc>
    3df0:	003dce06 	br	352c <___vfprintf_internal_r+0x108>
    3df4:	d9015017 	ldw	r4,1344(sp)
    3df8:	b00b883a 	mov	r5,r22
    3dfc:	d9800d04 	addi	r6,sp,52
    3e00:	00033cc0 	call	33cc <__sprint_r>
    3e04:	103f3f1e 	bne	r2,zero,3b04 <___vfprintf_internal_r+0x6e0>
    3e08:	dc800f17 	ldw	r18,60(sp)
    3e0c:	003f2e06 	br	3ac8 <___vfprintf_internal_r+0x6a4>
    3e10:	d9414d17 	ldw	r5,1332(sp)
    3e14:	29400414 	ori	r5,r5,16
    3e18:	d9414d15 	stw	r5,1332(sp)
    3e1c:	d9814d17 	ldw	r6,1332(sp)
    3e20:	3080080c 	andi	r2,r6,32
    3e24:	10014f1e 	bne	r2,zero,4364 <___vfprintf_internal_r+0xf40>
    3e28:	d8c14d17 	ldw	r3,1332(sp)
    3e2c:	1880040c 	andi	r2,r3,16
    3e30:	1002f01e 	bne	r2,zero,49f4 <___vfprintf_internal_r+0x15d0>
    3e34:	d9014d17 	ldw	r4,1332(sp)
    3e38:	2080100c 	andi	r2,r4,64
    3e3c:	1002ed26 	beq	r2,zero,49f4 <___vfprintf_internal_r+0x15d0>
    3e40:	3880000f 	ldh	r2,0(r7)
    3e44:	39c00104 	addi	r7,r7,4
    3e48:	d9c14115 	stw	r7,1284(sp)
    3e4c:	1023d7fa 	srai	r17,r2,31
    3e50:	1021883a 	mov	r16,r2
    3e54:	88037816 	blt	r17,zero,4c38 <___vfprintf_internal_r+0x1814>
    3e58:	01000044 	movi	r4,1
    3e5c:	98000416 	blt	r19,zero,3e70 <___vfprintf_internal_r+0xa4c>
    3e60:	d8c14d17 	ldw	r3,1332(sp)
    3e64:	00bfdfc4 	movi	r2,-129
    3e68:	1886703a 	and	r3,r3,r2
    3e6c:	d8c14d15 	stw	r3,1332(sp)
    3e70:	8444b03a 	or	r2,r16,r17
    3e74:	10022c1e 	bne	r2,zero,4728 <___vfprintf_internal_r+0x1304>
    3e78:	98022b1e 	bne	r19,zero,4728 <___vfprintf_internal_r+0x1304>
    3e7c:	20803fcc 	andi	r2,r4,255
    3e80:	1002a126 	beq	r2,zero,4908 <___vfprintf_internal_r+0x14e4>
    3e84:	d8c01a04 	addi	r3,sp,104
    3e88:	dd001004 	addi	r20,sp,64
    3e8c:	d8c14215 	stw	r3,1288(sp)
    3e90:	d8c14217 	ldw	r3,1288(sp)
    3e94:	dcc14615 	stw	r19,1304(sp)
    3e98:	a0c5c83a 	sub	r2,r20,r3
    3e9c:	11c00a04 	addi	r7,r2,40
    3ea0:	99c0010e 	bge	r19,r7,3ea8 <___vfprintf_internal_r+0xa84>
    3ea4:	d9c14615 	stw	r7,1304(sp)
    3ea8:	dcc14715 	stw	r19,1308(sp)
    3eac:	d8800407 	ldb	r2,16(sp)
    3eb0:	103e4c26 	beq	r2,zero,37e4 <___vfprintf_internal_r+0x3c0>
    3eb4:	d8814617 	ldw	r2,1304(sp)
    3eb8:	10800044 	addi	r2,r2,1
    3ebc:	d8814615 	stw	r2,1304(sp)
    3ec0:	003e4806 	br	37e4 <___vfprintf_internal_r+0x3c0>
    3ec4:	d9814d17 	ldw	r6,1332(sp)
    3ec8:	31800414 	ori	r6,r6,16
    3ecc:	d9814d15 	stw	r6,1332(sp)
    3ed0:	d8c14d17 	ldw	r3,1332(sp)
    3ed4:	1880080c 	andi	r2,r3,32
    3ed8:	1001271e 	bne	r2,zero,4378 <___vfprintf_internal_r+0xf54>
    3edc:	d9414d17 	ldw	r5,1332(sp)
    3ee0:	2880040c 	andi	r2,r5,16
    3ee4:	1002bc1e 	bne	r2,zero,49d8 <___vfprintf_internal_r+0x15b4>
    3ee8:	d9814d17 	ldw	r6,1332(sp)
    3eec:	3080100c 	andi	r2,r6,64
    3ef0:	1002b926 	beq	r2,zero,49d8 <___vfprintf_internal_r+0x15b4>
    3ef4:	3c00000b 	ldhu	r16,0(r7)
    3ef8:	0009883a 	mov	r4,zero
    3efc:	39c00104 	addi	r7,r7,4
    3f00:	0023883a 	mov	r17,zero
    3f04:	d9c14115 	stw	r7,1284(sp)
    3f08:	d8000405 	stb	zero,16(sp)
    3f0c:	003fd306 	br	3e5c <___vfprintf_internal_r+0xa38>
    3f10:	d9014d17 	ldw	r4,1332(sp)
    3f14:	21000414 	ori	r4,r4,16
    3f18:	d9014d15 	stw	r4,1332(sp)
    3f1c:	d9414d17 	ldw	r5,1332(sp)
    3f20:	2880080c 	andi	r2,r5,32
    3f24:	1001081e 	bne	r2,zero,4348 <___vfprintf_internal_r+0xf24>
    3f28:	d8c14d17 	ldw	r3,1332(sp)
    3f2c:	1880040c 	andi	r2,r3,16
    3f30:	1002b61e 	bne	r2,zero,4a0c <___vfprintf_internal_r+0x15e8>
    3f34:	d9014d17 	ldw	r4,1332(sp)
    3f38:	2080100c 	andi	r2,r4,64
    3f3c:	1002b326 	beq	r2,zero,4a0c <___vfprintf_internal_r+0x15e8>
    3f40:	3c00000b 	ldhu	r16,0(r7)
    3f44:	01000044 	movi	r4,1
    3f48:	39c00104 	addi	r7,r7,4
    3f4c:	0023883a 	mov	r17,zero
    3f50:	d9c14115 	stw	r7,1284(sp)
    3f54:	d8000405 	stb	zero,16(sp)
    3f58:	003fc006 	br	3e5c <___vfprintf_internal_r+0xa38>
    3f5c:	d9015017 	ldw	r4,1344(sp)
    3f60:	b00b883a 	mov	r5,r22
    3f64:	d9800d04 	addi	r6,sp,52
    3f68:	00033cc0 	call	33cc <__sprint_r>
    3f6c:	103ee51e 	bne	r2,zero,3b04 <___vfprintf_internal_r+0x6e0>
    3f70:	dc800f17 	ldw	r18,60(sp)
    3f74:	d8c01a04 	addi	r3,sp,104
    3f78:	d9814d17 	ldw	r6,1332(sp)
    3f7c:	3080004c 	andi	r2,r6,1
    3f80:	1005003a 	cmpeq	r2,r2,zero
    3f84:	103ea51e 	bne	r2,zero,3a1c <___vfprintf_internal_r+0x5f8>
    3f88:	00800044 	movi	r2,1
    3f8c:	dc400e17 	ldw	r17,56(sp)
    3f90:	18800115 	stw	r2,4(r3)
    3f94:	d8814a17 	ldw	r2,1320(sp)
    3f98:	94800044 	addi	r18,r18,1
    3f9c:	8c400044 	addi	r17,r17,1
    3fa0:	18800015 	stw	r2,0(r3)
    3fa4:	008001c4 	movi	r2,7
    3fa8:	dc800f15 	stw	r18,60(sp)
    3fac:	dc400e15 	stw	r17,56(sp)
    3fb0:	1442240e 	bge	r2,r17,4844 <___vfprintf_internal_r+0x1420>
    3fb4:	d9015017 	ldw	r4,1344(sp)
    3fb8:	b00b883a 	mov	r5,r22
    3fbc:	d9800d04 	addi	r6,sp,52
    3fc0:	00033cc0 	call	33cc <__sprint_r>
    3fc4:	103ecf1e 	bne	r2,zero,3b04 <___vfprintf_internal_r+0x6e0>
    3fc8:	dc800f17 	ldw	r18,60(sp)
    3fcc:	d8c01a04 	addi	r3,sp,104
    3fd0:	003e9206 	br	3a1c <___vfprintf_internal_r+0x5f8>
    3fd4:	d9015017 	ldw	r4,1344(sp)
    3fd8:	b00b883a 	mov	r5,r22
    3fdc:	d9800d04 	addi	r6,sp,52
    3fe0:	00033cc0 	call	33cc <__sprint_r>
    3fe4:	103ec026 	beq	r2,zero,3ae8 <___vfprintf_internal_r+0x6c4>
    3fe8:	003ec606 	br	3b04 <___vfprintf_internal_r+0x6e0>
    3fec:	d9015017 	ldw	r4,1344(sp)
    3ff0:	b00b883a 	mov	r5,r22
    3ff4:	d9800d04 	addi	r6,sp,52
    3ff8:	d9c15215 	stw	r7,1352(sp)
    3ffc:	00033cc0 	call	33cc <__sprint_r>
    4000:	d9c15217 	ldw	r7,1352(sp)
    4004:	103ebf1e 	bne	r2,zero,3b04 <___vfprintf_internal_r+0x6e0>
    4008:	dc800f17 	ldw	r18,60(sp)
    400c:	dc400e17 	ldw	r17,56(sp)
    4010:	dd401a04 	addi	r21,sp,104
    4014:	003e7406 	br	39e8 <___vfprintf_internal_r+0x5c4>
    4018:	d9015017 	ldw	r4,1344(sp)
    401c:	b00b883a 	mov	r5,r22
    4020:	d9800d04 	addi	r6,sp,52
    4024:	d9c15215 	stw	r7,1352(sp)
    4028:	00033cc0 	call	33cc <__sprint_r>
    402c:	d9c15217 	ldw	r7,1352(sp)
    4030:	103eb41e 	bne	r2,zero,3b04 <___vfprintf_internal_r+0x6e0>
    4034:	dd401a04 	addi	r21,sp,104
    4038:	003d6d06 	br	35f0 <___vfprintf_internal_r+0x1cc>
    403c:	d9015017 	ldw	r4,1344(sp)
    4040:	b00b883a 	mov	r5,r22
    4044:	d9800d04 	addi	r6,sp,52
    4048:	d9c15215 	stw	r7,1352(sp)
    404c:	00033cc0 	call	33cc <__sprint_r>
    4050:	d9c15217 	ldw	r7,1352(sp)
    4054:	103eab1e 	bne	r2,zero,3b04 <___vfprintf_internal_r+0x6e0>
    4058:	dc800f17 	ldw	r18,60(sp)
    405c:	dc400e17 	ldw	r17,56(sp)
    4060:	dd401a04 	addi	r21,sp,104
    4064:	003e3406 	br	3938 <___vfprintf_internal_r+0x514>
    4068:	d9015017 	ldw	r4,1344(sp)
    406c:	b00b883a 	mov	r5,r22
    4070:	d9800d04 	addi	r6,sp,52
    4074:	d9c15215 	stw	r7,1352(sp)
    4078:	00033cc0 	call	33cc <__sprint_r>
    407c:	d9c15217 	ldw	r7,1352(sp)
    4080:	103ea01e 	bne	r2,zero,3b04 <___vfprintf_internal_r+0x6e0>
    4084:	dc800f17 	ldw	r18,60(sp)
    4088:	dc400e17 	ldw	r17,56(sp)
    408c:	dd401a04 	addi	r21,sp,104
    4090:	003e1c06 	br	3904 <___vfprintf_internal_r+0x4e0>
    4094:	d9015017 	ldw	r4,1344(sp)
    4098:	b00b883a 	mov	r5,r22
    409c:	d9800d04 	addi	r6,sp,52
    40a0:	d9c15215 	stw	r7,1352(sp)
    40a4:	00033cc0 	call	33cc <__sprint_r>
    40a8:	d9c15217 	ldw	r7,1352(sp)
    40ac:	103e951e 	bne	r2,zero,3b04 <___vfprintf_internal_r+0x6e0>
    40b0:	dc800f17 	ldw	r18,60(sp)
    40b4:	dc400e17 	ldw	r17,56(sp)
    40b8:	dd401a04 	addi	r21,sp,104
    40bc:	003e0406 	br	38d0 <___vfprintf_internal_r+0x4ac>
    40c0:	d9000617 	ldw	r4,24(sp)
    40c4:	0102580e 	bge	zero,r4,4a28 <___vfprintf_internal_r+0x1604>
    40c8:	d9814817 	ldw	r6,1312(sp)
    40cc:	21807a16 	blt	r4,r6,42b8 <___vfprintf_internal_r+0xe94>
    40d0:	d8814217 	ldw	r2,1288(sp)
    40d4:	91a5883a 	add	r18,r18,r6
    40d8:	8c400044 	addi	r17,r17,1
    40dc:	a8800015 	stw	r2,0(r21)
    40e0:	008001c4 	movi	r2,7
    40e4:	a9800115 	stw	r6,4(r21)
    40e8:	dc800f15 	stw	r18,60(sp)
    40ec:	dc400e15 	stw	r17,56(sp)
    40f0:	1442fc16 	blt	r2,r17,4ce4 <___vfprintf_internal_r+0x18c0>
    40f4:	a8c00204 	addi	r3,r21,8
    40f8:	d9414817 	ldw	r5,1312(sp)
    40fc:	2161c83a 	sub	r16,r4,r5
    4100:	043f9d0e 	bge	zero,r16,3f78 <___vfprintf_internal_r+0xb54>
    4104:	00800404 	movi	r2,16
    4108:	1402190e 	bge	r2,r16,4970 <___vfprintf_internal_r+0x154c>
    410c:	dc400e17 	ldw	r17,56(sp)
    4110:	1027883a 	mov	r19,r2
    4114:	07000074 	movhi	fp,1
    4118:	e73bf504 	addi	fp,fp,-4140
    411c:	050001c4 	movi	r20,7
    4120:	00000306 	br	4130 <___vfprintf_internal_r+0xd0c>
    4124:	18c00204 	addi	r3,r3,8
    4128:	843ffc04 	addi	r16,r16,-16
    412c:	9c02130e 	bge	r19,r16,497c <___vfprintf_internal_r+0x1558>
    4130:	94800404 	addi	r18,r18,16
    4134:	8c400044 	addi	r17,r17,1
    4138:	1f000015 	stw	fp,0(r3)
    413c:	1cc00115 	stw	r19,4(r3)
    4140:	dc800f15 	stw	r18,60(sp)
    4144:	dc400e15 	stw	r17,56(sp)
    4148:	a47ff60e 	bge	r20,r17,4124 <___vfprintf_internal_r+0xd00>
    414c:	d9015017 	ldw	r4,1344(sp)
    4150:	b00b883a 	mov	r5,r22
    4154:	d9800d04 	addi	r6,sp,52
    4158:	00033cc0 	call	33cc <__sprint_r>
    415c:	103e691e 	bne	r2,zero,3b04 <___vfprintf_internal_r+0x6e0>
    4160:	dc800f17 	ldw	r18,60(sp)
    4164:	dc400e17 	ldw	r17,56(sp)
    4168:	d8c01a04 	addi	r3,sp,104
    416c:	003fee06 	br	4128 <___vfprintf_internal_r+0xd04>
    4170:	d8814817 	ldw	r2,1312(sp)
    4174:	143fffc4 	addi	r16,r2,-1
    4178:	043e970e 	bge	zero,r16,3bd8 <___vfprintf_internal_r+0x7b4>
    417c:	00800404 	movi	r2,16
    4180:	1400180e 	bge	r2,r16,41e4 <___vfprintf_internal_r+0xdc0>
    4184:	1029883a 	mov	r20,r2
    4188:	07000074 	movhi	fp,1
    418c:	e73bf504 	addi	fp,fp,-4140
    4190:	054001c4 	movi	r21,7
    4194:	00000306 	br	41a4 <___vfprintf_internal_r+0xd80>
    4198:	9cc00204 	addi	r19,r19,8
    419c:	843ffc04 	addi	r16,r16,-16
    41a0:	a400120e 	bge	r20,r16,41ec <___vfprintf_internal_r+0xdc8>
    41a4:	94800404 	addi	r18,r18,16
    41a8:	8c400044 	addi	r17,r17,1
    41ac:	9f000015 	stw	fp,0(r19)
    41b0:	9d000115 	stw	r20,4(r19)
    41b4:	dc800f15 	stw	r18,60(sp)
    41b8:	dc400e15 	stw	r17,56(sp)
    41bc:	ac7ff60e 	bge	r21,r17,4198 <___vfprintf_internal_r+0xd74>
    41c0:	d9015017 	ldw	r4,1344(sp)
    41c4:	b00b883a 	mov	r5,r22
    41c8:	d9800d04 	addi	r6,sp,52
    41cc:	00033cc0 	call	33cc <__sprint_r>
    41d0:	103e4c1e 	bne	r2,zero,3b04 <___vfprintf_internal_r+0x6e0>
    41d4:	dc800f17 	ldw	r18,60(sp)
    41d8:	dc400e17 	ldw	r17,56(sp)
    41dc:	dcc01a04 	addi	r19,sp,104
    41e0:	003fee06 	br	419c <___vfprintf_internal_r+0xd78>
    41e4:	07000074 	movhi	fp,1
    41e8:	e73bf504 	addi	fp,fp,-4140
    41ec:	9425883a 	add	r18,r18,r16
    41f0:	8c400044 	addi	r17,r17,1
    41f4:	008001c4 	movi	r2,7
    41f8:	9f000015 	stw	fp,0(r19)
    41fc:	9c000115 	stw	r16,4(r19)
    4200:	dc800f15 	stw	r18,60(sp)
    4204:	dc400e15 	stw	r17,56(sp)
    4208:	147e720e 	bge	r2,r17,3bd4 <___vfprintf_internal_r+0x7b0>
    420c:	d9015017 	ldw	r4,1344(sp)
    4210:	b00b883a 	mov	r5,r22
    4214:	d9800d04 	addi	r6,sp,52
    4218:	00033cc0 	call	33cc <__sprint_r>
    421c:	103e391e 	bne	r2,zero,3b04 <___vfprintf_internal_r+0x6e0>
    4220:	dc800f17 	ldw	r18,60(sp)
    4224:	dc400e17 	ldw	r17,56(sp)
    4228:	dcc01a04 	addi	r19,sp,104
    422c:	003e6a06 	br	3bd8 <___vfprintf_internal_r+0x7b4>
    4230:	d9015017 	ldw	r4,1344(sp)
    4234:	b00b883a 	mov	r5,r22
    4238:	d9800d04 	addi	r6,sp,52
    423c:	d9c15215 	stw	r7,1352(sp)
    4240:	00033cc0 	call	33cc <__sprint_r>
    4244:	d9c15217 	ldw	r7,1352(sp)
    4248:	103e2e1e 	bne	r2,zero,3b04 <___vfprintf_internal_r+0x6e0>
    424c:	dc800f17 	ldw	r18,60(sp)
    4250:	dc400e17 	ldw	r17,56(sp)
    4254:	dd401a04 	addi	r21,sp,104
    4258:	003dba06 	br	3944 <___vfprintf_internal_r+0x520>
    425c:	d9015017 	ldw	r4,1344(sp)
    4260:	b00b883a 	mov	r5,r22
    4264:	d9800d04 	addi	r6,sp,52
    4268:	00033cc0 	call	33cc <__sprint_r>
    426c:	103e251e 	bne	r2,zero,3b04 <___vfprintf_internal_r+0x6e0>
    4270:	dc800f17 	ldw	r18,60(sp)
    4274:	dc400e17 	ldw	r17,56(sp)
    4278:	dcc01a04 	addi	r19,sp,104
    427c:	003e4206 	br	3b88 <___vfprintf_internal_r+0x764>
    4280:	d9015017 	ldw	r4,1344(sp)
    4284:	b00b883a 	mov	r5,r22
    4288:	d9800d04 	addi	r6,sp,52
    428c:	00033cc0 	call	33cc <__sprint_r>
    4290:	103e1c1e 	bne	r2,zero,3b04 <___vfprintf_internal_r+0x6e0>
    4294:	dc800f17 	ldw	r18,60(sp)
    4298:	dc400e17 	ldw	r17,56(sp)
    429c:	d8c01a04 	addi	r3,sp,104
    42a0:	003e2e06 	br	3b5c <___vfprintf_internal_r+0x738>
    42a4:	d9414d17 	ldw	r5,1332(sp)
    42a8:	2880004c 	andi	r2,r5,1
    42ac:	1005003a 	cmpeq	r2,r2,zero
    42b0:	103dda1e 	bne	r2,zero,3a1c <___vfprintf_internal_r+0x5f8>
    42b4:	003e9f06 	br	3d34 <___vfprintf_internal_r+0x910>
    42b8:	d8c14217 	ldw	r3,1288(sp)
    42bc:	9125883a 	add	r18,r18,r4
    42c0:	8c400044 	addi	r17,r17,1
    42c4:	008001c4 	movi	r2,7
    42c8:	a8c00015 	stw	r3,0(r21)
    42cc:	a9000115 	stw	r4,4(r21)
    42d0:	dc800f15 	stw	r18,60(sp)
    42d4:	dc400e15 	stw	r17,56(sp)
    42d8:	14426c16 	blt	r2,r17,4c8c <___vfprintf_internal_r+0x1868>
    42dc:	a8c00204 	addi	r3,r21,8
    42e0:	d9414a17 	ldw	r5,1320(sp)
    42e4:	00800044 	movi	r2,1
    42e8:	94800044 	addi	r18,r18,1
    42ec:	8c400044 	addi	r17,r17,1
    42f0:	18800115 	stw	r2,4(r3)
    42f4:	008001c4 	movi	r2,7
    42f8:	19400015 	stw	r5,0(r3)
    42fc:	dc800f15 	stw	r18,60(sp)
    4300:	dc400e15 	stw	r17,56(sp)
    4304:	2021883a 	mov	r16,r4
    4308:	14425616 	blt	r2,r17,4c64 <___vfprintf_internal_r+0x1840>
    430c:	19400204 	addi	r5,r3,8
    4310:	d9814817 	ldw	r6,1312(sp)
    4314:	8c400044 	addi	r17,r17,1
    4318:	dc400e15 	stw	r17,56(sp)
    431c:	3107c83a 	sub	r3,r6,r4
    4320:	d9014217 	ldw	r4,1288(sp)
    4324:	90e5883a 	add	r18,r18,r3
    4328:	28c00115 	stw	r3,4(r5)
    432c:	8105883a 	add	r2,r16,r4
    4330:	28800015 	stw	r2,0(r5)
    4334:	008001c4 	movi	r2,7
    4338:	dc800f15 	stw	r18,60(sp)
    433c:	147f1d16 	blt	r2,r17,3fb4 <___vfprintf_internal_r+0xb90>
    4340:	28c00204 	addi	r3,r5,8
    4344:	003db506 	br	3a1c <___vfprintf_internal_r+0x5f8>
    4348:	3c000017 	ldw	r16,0(r7)
    434c:	3c400117 	ldw	r17,4(r7)
    4350:	39800204 	addi	r6,r7,8
    4354:	01000044 	movi	r4,1
    4358:	d9814115 	stw	r6,1284(sp)
    435c:	d8000405 	stb	zero,16(sp)
    4360:	003ebe06 	br	3e5c <___vfprintf_internal_r+0xa38>
    4364:	3c000017 	ldw	r16,0(r7)
    4368:	3c400117 	ldw	r17,4(r7)
    436c:	38800204 	addi	r2,r7,8
    4370:	d8814115 	stw	r2,1284(sp)
    4374:	003eb706 	br	3e54 <___vfprintf_internal_r+0xa30>
    4378:	3c000017 	ldw	r16,0(r7)
    437c:	3c400117 	ldw	r17,4(r7)
    4380:	39000204 	addi	r4,r7,8
    4384:	d9014115 	stw	r4,1284(sp)
    4388:	0009883a 	mov	r4,zero
    438c:	d8000405 	stb	zero,16(sp)
    4390:	003eb206 	br	3e5c <___vfprintf_internal_r+0xa38>
    4394:	38c00017 	ldw	r3,0(r7)
    4398:	39c00104 	addi	r7,r7,4
    439c:	d8c14b15 	stw	r3,1324(sp)
    43a0:	1800d70e 	bge	r3,zero,4700 <___vfprintf_internal_r+0x12dc>
    43a4:	00c7c83a 	sub	r3,zero,r3
    43a8:	d8c14b15 	stw	r3,1324(sp)
    43ac:	d9014d17 	ldw	r4,1332(sp)
    43b0:	b8c00007 	ldb	r3,0(r23)
    43b4:	21000114 	ori	r4,r4,4
    43b8:	d9014d15 	stw	r4,1332(sp)
    43bc:	003c9806 	br	3620 <___vfprintf_internal_r+0x1fc>
    43c0:	d9814d17 	ldw	r6,1332(sp)
    43c4:	3080080c 	andi	r2,r6,32
    43c8:	1001f626 	beq	r2,zero,4ba4 <___vfprintf_internal_r+0x1780>
    43cc:	d9014c17 	ldw	r4,1328(sp)
    43d0:	38800017 	ldw	r2,0(r7)
    43d4:	39c00104 	addi	r7,r7,4
    43d8:	d9c14115 	stw	r7,1284(sp)
    43dc:	2007d7fa 	srai	r3,r4,31
    43e0:	d9c14117 	ldw	r7,1284(sp)
    43e4:	11000015 	stw	r4,0(r2)
    43e8:	10c00115 	stw	r3,4(r2)
    43ec:	003c6906 	br	3594 <___vfprintf_internal_r+0x170>
    43f0:	b8c00007 	ldb	r3,0(r23)
    43f4:	00801b04 	movi	r2,108
    43f8:	18825526 	beq	r3,r2,4d50 <___vfprintf_internal_r+0x192c>
    43fc:	d9414d17 	ldw	r5,1332(sp)
    4400:	29400414 	ori	r5,r5,16
    4404:	d9414d15 	stw	r5,1332(sp)
    4408:	003c8506 	br	3620 <___vfprintf_internal_r+0x1fc>
    440c:	d9814d17 	ldw	r6,1332(sp)
    4410:	b8c00007 	ldb	r3,0(r23)
    4414:	31800814 	ori	r6,r6,32
    4418:	d9814d15 	stw	r6,1332(sp)
    441c:	003c8006 	br	3620 <___vfprintf_internal_r+0x1fc>
    4420:	d8814d17 	ldw	r2,1332(sp)
    4424:	3c000017 	ldw	r16,0(r7)
    4428:	00c01e04 	movi	r3,120
    442c:	10800094 	ori	r2,r2,2
    4430:	d8814d15 	stw	r2,1332(sp)
    4434:	39c00104 	addi	r7,r7,4
    4438:	01400074 	movhi	r5,1
    443c:	297bdd04 	addi	r5,r5,-4236
    4440:	00800c04 	movi	r2,48
    4444:	0023883a 	mov	r17,zero
    4448:	01000084 	movi	r4,2
    444c:	d9c14115 	stw	r7,1284(sp)
    4450:	d8c14e15 	stw	r3,1336(sp)
    4454:	d9414515 	stw	r5,1300(sp)
    4458:	d8800505 	stb	r2,20(sp)
    445c:	d8c00545 	stb	r3,21(sp)
    4460:	d8000405 	stb	zero,16(sp)
    4464:	003e7d06 	br	3e5c <___vfprintf_internal_r+0xa38>
    4468:	d8814d17 	ldw	r2,1332(sp)
    446c:	b8c00007 	ldb	r3,0(r23)
    4470:	10801014 	ori	r2,r2,64
    4474:	d8814d15 	stw	r2,1332(sp)
    4478:	003c6906 	br	3620 <___vfprintf_internal_r+0x1fc>
    447c:	d9414d17 	ldw	r5,1332(sp)
    4480:	2880020c 	andi	r2,r5,8
    4484:	1001e526 	beq	r2,zero,4c1c <___vfprintf_internal_r+0x17f8>
    4488:	39800017 	ldw	r6,0(r7)
    448c:	38800204 	addi	r2,r7,8
    4490:	d8814115 	stw	r2,1284(sp)
    4494:	d9814315 	stw	r6,1292(sp)
    4498:	39c00117 	ldw	r7,4(r7)
    449c:	d9c14415 	stw	r7,1296(sp)
    44a0:	d9014317 	ldw	r4,1292(sp)
    44a4:	d9414417 	ldw	r5,1296(sp)
    44a8:	000a5c00 	call	a5c0 <__isinfd>
    44ac:	10021d26 	beq	r2,zero,4d24 <___vfprintf_internal_r+0x1900>
    44b0:	d9014317 	ldw	r4,1292(sp)
    44b4:	d9414417 	ldw	r5,1296(sp)
    44b8:	000d883a 	mov	r6,zero
    44bc:	000f883a 	mov	r7,zero
    44c0:	000cb240 	call	cb24 <__ltdf2>
    44c4:	1002d016 	blt	r2,zero,5008 <___vfprintf_internal_r+0x1be4>
    44c8:	d9414e17 	ldw	r5,1336(sp)
    44cc:	008011c4 	movi	r2,71
    44d0:	11421016 	blt	r2,r5,4d14 <___vfprintf_internal_r+0x18f0>
    44d4:	01800074 	movhi	r6,1
    44d8:	31bbe204 	addi	r6,r6,-4216
    44dc:	d9814215 	stw	r6,1288(sp)
    44e0:	d9014d17 	ldw	r4,1332(sp)
    44e4:	00c000c4 	movi	r3,3
    44e8:	00bfdfc4 	movi	r2,-129
    44ec:	2088703a 	and	r4,r4,r2
    44f0:	180f883a 	mov	r7,r3
    44f4:	d8c14615 	stw	r3,1304(sp)
    44f8:	d9014d15 	stw	r4,1332(sp)
    44fc:	d8014715 	stw	zero,1308(sp)
    4500:	003e6a06 	br	3eac <___vfprintf_internal_r+0xa88>
    4504:	38800017 	ldw	r2,0(r7)
    4508:	00c00044 	movi	r3,1
    450c:	39c00104 	addi	r7,r7,4
    4510:	d9c14115 	stw	r7,1284(sp)
    4514:	d9001004 	addi	r4,sp,64
    4518:	180f883a 	mov	r7,r3
    451c:	d8c14615 	stw	r3,1304(sp)
    4520:	d9014215 	stw	r4,1288(sp)
    4524:	d8801005 	stb	r2,64(sp)
    4528:	d8000405 	stb	zero,16(sp)
    452c:	003cac06 	br	37e0 <___vfprintf_internal_r+0x3bc>
    4530:	01400074 	movhi	r5,1
    4534:	297be804 	addi	r5,r5,-4192
    4538:	d9414515 	stw	r5,1300(sp)
    453c:	d9814d17 	ldw	r6,1332(sp)
    4540:	3080080c 	andi	r2,r6,32
    4544:	1000ff26 	beq	r2,zero,4944 <___vfprintf_internal_r+0x1520>
    4548:	3c000017 	ldw	r16,0(r7)
    454c:	3c400117 	ldw	r17,4(r7)
    4550:	38800204 	addi	r2,r7,8
    4554:	d8814115 	stw	r2,1284(sp)
    4558:	d9414d17 	ldw	r5,1332(sp)
    455c:	2880004c 	andi	r2,r5,1
    4560:	1005003a 	cmpeq	r2,r2,zero
    4564:	1000b91e 	bne	r2,zero,484c <___vfprintf_internal_r+0x1428>
    4568:	8444b03a 	or	r2,r16,r17
    456c:	1000b726 	beq	r2,zero,484c <___vfprintf_internal_r+0x1428>
    4570:	d9814e17 	ldw	r6,1336(sp)
    4574:	29400094 	ori	r5,r5,2
    4578:	00800c04 	movi	r2,48
    457c:	01000084 	movi	r4,2
    4580:	d9414d15 	stw	r5,1332(sp)
    4584:	d8800505 	stb	r2,20(sp)
    4588:	d9800545 	stb	r6,21(sp)
    458c:	d8000405 	stb	zero,16(sp)
    4590:	003e3206 	br	3e5c <___vfprintf_internal_r+0xa38>
    4594:	01800074 	movhi	r6,1
    4598:	31bbdd04 	addi	r6,r6,-4236
    459c:	d9814515 	stw	r6,1300(sp)
    45a0:	003fe606 	br	453c <___vfprintf_internal_r+0x1118>
    45a4:	00800ac4 	movi	r2,43
    45a8:	d8800405 	stb	r2,16(sp)
    45ac:	b8c00007 	ldb	r3,0(r23)
    45b0:	003c1b06 	br	3620 <___vfprintf_internal_r+0x1fc>
    45b4:	d8814d17 	ldw	r2,1332(sp)
    45b8:	b8c00007 	ldb	r3,0(r23)
    45bc:	10800054 	ori	r2,r2,1
    45c0:	d8814d15 	stw	r2,1332(sp)
    45c4:	003c1606 	br	3620 <___vfprintf_internal_r+0x1fc>
    45c8:	d8800407 	ldb	r2,16(sp)
    45cc:	10004c1e 	bne	r2,zero,4700 <___vfprintf_internal_r+0x12dc>
    45d0:	00800804 	movi	r2,32
    45d4:	d8800405 	stb	r2,16(sp)
    45d8:	b8c00007 	ldb	r3,0(r23)
    45dc:	003c1006 	br	3620 <___vfprintf_internal_r+0x1fc>
    45e0:	d9814d17 	ldw	r6,1332(sp)
    45e4:	b8c00007 	ldb	r3,0(r23)
    45e8:	31800214 	ori	r6,r6,8
    45ec:	d9814d15 	stw	r6,1332(sp)
    45f0:	003c0b06 	br	3620 <___vfprintf_internal_r+0x1fc>
    45f4:	0009883a 	mov	r4,zero
    45f8:	04000244 	movi	r16,9
    45fc:	01400284 	movi	r5,10
    4600:	d9c15215 	stw	r7,1352(sp)
    4604:	000d0e40 	call	d0e4 <__mulsi3>
    4608:	b9000007 	ldb	r4,0(r23)
    460c:	d8c14e17 	ldw	r3,1336(sp)
    4610:	bdc00044 	addi	r23,r23,1
    4614:	d9014e15 	stw	r4,1336(sp)
    4618:	d9414e17 	ldw	r5,1336(sp)
    461c:	1885883a 	add	r2,r3,r2
    4620:	113ff404 	addi	r4,r2,-48
    4624:	28bff404 	addi	r2,r5,-48
    4628:	d9c15217 	ldw	r7,1352(sp)
    462c:	80bff32e 	bgeu	r16,r2,45fc <___vfprintf_internal_r+0x11d8>
    4630:	d9014b15 	stw	r4,1324(sp)
    4634:	003bfc06 	br	3628 <___vfprintf_internal_r+0x204>
    4638:	d8814d17 	ldw	r2,1332(sp)
    463c:	b8c00007 	ldb	r3,0(r23)
    4640:	10802014 	ori	r2,r2,128
    4644:	d8814d15 	stw	r2,1332(sp)
    4648:	003bf506 	br	3620 <___vfprintf_internal_r+0x1fc>
    464c:	b8c00007 	ldb	r3,0(r23)
    4650:	00800a84 	movi	r2,42
    4654:	bdc00044 	addi	r23,r23,1
    4658:	18831826 	beq	r3,r2,52bc <___vfprintf_internal_r+0x1e98>
    465c:	d8c14e15 	stw	r3,1336(sp)
    4660:	18bff404 	addi	r2,r3,-48
    4664:	00c00244 	movi	r3,9
    4668:	18827b36 	bltu	r3,r2,5058 <___vfprintf_internal_r+0x1c34>
    466c:	1821883a 	mov	r16,r3
    4670:	0009883a 	mov	r4,zero
    4674:	01400284 	movi	r5,10
    4678:	d9c15215 	stw	r7,1352(sp)
    467c:	000d0e40 	call	d0e4 <__mulsi3>
    4680:	d9414e17 	ldw	r5,1336(sp)
    4684:	b9800007 	ldb	r6,0(r23)
    4688:	d9c15217 	ldw	r7,1352(sp)
    468c:	1145883a 	add	r2,r2,r5
    4690:	113ff404 	addi	r4,r2,-48
    4694:	30bff404 	addi	r2,r6,-48
    4698:	d9814e15 	stw	r6,1336(sp)
    469c:	bdc00044 	addi	r23,r23,1
    46a0:	80bff42e 	bgeu	r16,r2,4674 <___vfprintf_internal_r+0x1250>
    46a4:	2027883a 	mov	r19,r4
    46a8:	203bdf0e 	bge	r4,zero,3628 <___vfprintf_internal_r+0x204>
    46ac:	04ffffc4 	movi	r19,-1
    46b0:	003bdd06 	br	3628 <___vfprintf_internal_r+0x204>
    46b4:	d8000405 	stb	zero,16(sp)
    46b8:	39800017 	ldw	r6,0(r7)
    46bc:	39c00104 	addi	r7,r7,4
    46c0:	d9c14115 	stw	r7,1284(sp)
    46c4:	d9814215 	stw	r6,1288(sp)
    46c8:	3001c926 	beq	r6,zero,4df0 <___vfprintf_internal_r+0x19cc>
    46cc:	98000e16 	blt	r19,zero,4708 <___vfprintf_internal_r+0x12e4>
    46d0:	d9014217 	ldw	r4,1288(sp)
    46d4:	000b883a 	mov	r5,zero
    46d8:	980d883a 	mov	r6,r19
    46dc:	00089e40 	call	89e4 <memchr>
    46e0:	10025926 	beq	r2,zero,5048 <___vfprintf_internal_r+0x1c24>
    46e4:	d8c14217 	ldw	r3,1288(sp)
    46e8:	10cfc83a 	sub	r7,r2,r3
    46ec:	99c19e16 	blt	r19,r7,4d68 <___vfprintf_internal_r+0x1944>
    46f0:	d9c14615 	stw	r7,1304(sp)
    46f4:	38000916 	blt	r7,zero,471c <___vfprintf_internal_r+0x12f8>
    46f8:	d8014715 	stw	zero,1308(sp)
    46fc:	003deb06 	br	3eac <___vfprintf_internal_r+0xa88>
    4700:	b8c00007 	ldb	r3,0(r23)
    4704:	003bc606 	br	3620 <___vfprintf_internal_r+0x1fc>
    4708:	d9014217 	ldw	r4,1288(sp)
    470c:	00014700 	call	1470 <strlen>
    4710:	d8814615 	stw	r2,1304(sp)
    4714:	100f883a 	mov	r7,r2
    4718:	103ff70e 	bge	r2,zero,46f8 <___vfprintf_internal_r+0x12d4>
    471c:	d8014615 	stw	zero,1304(sp)
    4720:	d8014715 	stw	zero,1308(sp)
    4724:	003de106 	br	3eac <___vfprintf_internal_r+0xa88>
    4728:	20c03fcc 	andi	r3,r4,255
    472c:	00800044 	movi	r2,1
    4730:	18802d26 	beq	r3,r2,47e8 <___vfprintf_internal_r+0x13c4>
    4734:	18800e36 	bltu	r3,r2,4770 <___vfprintf_internal_r+0x134c>
    4738:	00800084 	movi	r2,2
    473c:	1880fa26 	beq	r3,r2,4b28 <___vfprintf_internal_r+0x1704>
    4740:	01000074 	movhi	r4,1
    4744:	213bed04 	addi	r4,r4,-4172
    4748:	00014700 	call	1470 <strlen>
    474c:	100f883a 	mov	r7,r2
    4750:	dcc14615 	stw	r19,1304(sp)
    4754:	9880010e 	bge	r19,r2,475c <___vfprintf_internal_r+0x1338>
    4758:	d8814615 	stw	r2,1304(sp)
    475c:	00800074 	movhi	r2,1
    4760:	10bbed04 	addi	r2,r2,-4172
    4764:	dcc14715 	stw	r19,1308(sp)
    4768:	d8814215 	stw	r2,1288(sp)
    476c:	003dcf06 	br	3eac <___vfprintf_internal_r+0xa88>
    4770:	d9401a04 	addi	r5,sp,104
    4774:	dd001004 	addi	r20,sp,64
    4778:	d9414215 	stw	r5,1288(sp)
    477c:	880a977a 	slli	r5,r17,29
    4780:	d9814217 	ldw	r6,1288(sp)
    4784:	8004d0fa 	srli	r2,r16,3
    4788:	8806d0fa 	srli	r3,r17,3
    478c:	810001cc 	andi	r4,r16,7
    4790:	2884b03a 	or	r2,r5,r2
    4794:	31bfffc4 	addi	r6,r6,-1
    4798:	21000c04 	addi	r4,r4,48
    479c:	d9814215 	stw	r6,1288(sp)
    47a0:	10cab03a 	or	r5,r2,r3
    47a4:	31000005 	stb	r4,0(r6)
    47a8:	1021883a 	mov	r16,r2
    47ac:	1823883a 	mov	r17,r3
    47b0:	283ff21e 	bne	r5,zero,477c <___vfprintf_internal_r+0x1358>
    47b4:	d8c14d17 	ldw	r3,1332(sp)
    47b8:	1880004c 	andi	r2,r3,1
    47bc:	1005003a 	cmpeq	r2,r2,zero
    47c0:	103db31e 	bne	r2,zero,3e90 <___vfprintf_internal_r+0xa6c>
    47c4:	20803fcc 	andi	r2,r4,255
    47c8:	1080201c 	xori	r2,r2,128
    47cc:	10bfe004 	addi	r2,r2,-128
    47d0:	00c00c04 	movi	r3,48
    47d4:	10fdae26 	beq	r2,r3,3e90 <___vfprintf_internal_r+0xa6c>
    47d8:	31bfffc4 	addi	r6,r6,-1
    47dc:	d9814215 	stw	r6,1288(sp)
    47e0:	30c00005 	stb	r3,0(r6)
    47e4:	003daa06 	br	3e90 <___vfprintf_internal_r+0xa6c>
    47e8:	88800068 	cmpgeui	r2,r17,1
    47ec:	10002c1e 	bne	r2,zero,48a0 <___vfprintf_internal_r+0x147c>
    47f0:	8800021e 	bne	r17,zero,47fc <___vfprintf_internal_r+0x13d8>
    47f4:	00800244 	movi	r2,9
    47f8:	14002936 	bltu	r2,r16,48a0 <___vfprintf_internal_r+0x147c>
    47fc:	d90019c4 	addi	r4,sp,103
    4800:	dd001004 	addi	r20,sp,64
    4804:	d9014215 	stw	r4,1288(sp)
    4808:	d9014217 	ldw	r4,1288(sp)
    480c:	80800c04 	addi	r2,r16,48
    4810:	20800005 	stb	r2,0(r4)
    4814:	003d9e06 	br	3e90 <___vfprintf_internal_r+0xa6c>
    4818:	dc400e17 	ldw	r17,56(sp)
    481c:	07000074 	movhi	fp,1
    4820:	e73bf504 	addi	fp,fp,-4140
    4824:	9425883a 	add	r18,r18,r16
    4828:	8c400044 	addi	r17,r17,1
    482c:	008001c4 	movi	r2,7
    4830:	1f000015 	stw	fp,0(r3)
    4834:	1c000115 	stw	r16,4(r3)
    4838:	dc800f15 	stw	r18,60(sp)
    483c:	dc400e15 	stw	r17,56(sp)
    4840:	147ddc16 	blt	r2,r17,3fb4 <___vfprintf_internal_r+0xb90>
    4844:	18c00204 	addi	r3,r3,8
    4848:	003c7406 	br	3a1c <___vfprintf_internal_r+0x5f8>
    484c:	01000084 	movi	r4,2
    4850:	d8000405 	stb	zero,16(sp)
    4854:	003d8106 	br	3e5c <___vfprintf_internal_r+0xa38>
    4858:	d9814d17 	ldw	r6,1332(sp)
    485c:	30c4703a 	and	r2,r6,r3
    4860:	1005003a 	cmpeq	r2,r2,zero
    4864:	103cb326 	beq	r2,zero,3b34 <___vfprintf_internal_r+0x710>
    4868:	d9014217 	ldw	r4,1288(sp)
    486c:	94800044 	addi	r18,r18,1
    4870:	8c400044 	addi	r17,r17,1
    4874:	008001c4 	movi	r2,7
    4878:	a9000015 	stw	r4,0(r21)
    487c:	a8c00115 	stw	r3,4(r21)
    4880:	dc800f15 	stw	r18,60(sp)
    4884:	dc400e15 	stw	r17,56(sp)
    4888:	147e6016 	blt	r2,r17,420c <___vfprintf_internal_r+0xde8>
    488c:	acc00204 	addi	r19,r21,8
    4890:	003cd106 	br	3bd8 <___vfprintf_internal_r+0x7b4>
    4894:	07000074 	movhi	fp,1
    4898:	e73bf504 	addi	fp,fp,-4140
    489c:	003c4906 	br	39c4 <___vfprintf_internal_r+0x5a0>
    48a0:	dd001004 	addi	r20,sp,64
    48a4:	dc801a04 	addi	r18,sp,104
    48a8:	8009883a 	mov	r4,r16
    48ac:	880b883a 	mov	r5,r17
    48b0:	01800284 	movi	r6,10
    48b4:	000f883a 	mov	r7,zero
    48b8:	000b61c0 	call	b61c <__umoddi3>
    48bc:	12000c04 	addi	r8,r2,48
    48c0:	94bfffc4 	addi	r18,r18,-1
    48c4:	8009883a 	mov	r4,r16
    48c8:	880b883a 	mov	r5,r17
    48cc:	01800284 	movi	r6,10
    48d0:	000f883a 	mov	r7,zero
    48d4:	92000005 	stb	r8,0(r18)
    48d8:	000afb00 	call	afb0 <__udivdi3>
    48dc:	1009883a 	mov	r4,r2
    48e0:	1021883a 	mov	r16,r2
    48e4:	18800068 	cmpgeui	r2,r3,1
    48e8:	1823883a 	mov	r17,r3
    48ec:	103fee1e 	bne	r2,zero,48a8 <___vfprintf_internal_r+0x1484>
    48f0:	1800021e 	bne	r3,zero,48fc <___vfprintf_internal_r+0x14d8>
    48f4:	00800244 	movi	r2,9
    48f8:	113feb36 	bltu	r2,r4,48a8 <___vfprintf_internal_r+0x1484>
    48fc:	94bfffc4 	addi	r18,r18,-1
    4900:	dc814215 	stw	r18,1288(sp)
    4904:	003fc006 	br	4808 <___vfprintf_internal_r+0x13e4>
    4908:	d9014d17 	ldw	r4,1332(sp)
    490c:	2080004c 	andi	r2,r4,1
    4910:	10009a1e 	bne	r2,zero,4b7c <___vfprintf_internal_r+0x1758>
    4914:	d9401a04 	addi	r5,sp,104
    4918:	dd001004 	addi	r20,sp,64
    491c:	d9414215 	stw	r5,1288(sp)
    4920:	003d5b06 	br	3e90 <___vfprintf_internal_r+0xa6c>
    4924:	d9015017 	ldw	r4,1344(sp)
    4928:	b00b883a 	mov	r5,r22
    492c:	d9800d04 	addi	r6,sp,52
    4930:	00033cc0 	call	33cc <__sprint_r>
    4934:	103c731e 	bne	r2,zero,3b04 <___vfprintf_internal_r+0x6e0>
    4938:	dc800f17 	ldw	r18,60(sp)
    493c:	d8c01a04 	addi	r3,sp,104
    4940:	003cf906 	br	3d28 <___vfprintf_internal_r+0x904>
    4944:	d8c14d17 	ldw	r3,1332(sp)
    4948:	1880040c 	andi	r2,r3,16
    494c:	1000711e 	bne	r2,zero,4b14 <___vfprintf_internal_r+0x16f0>
    4950:	d9014d17 	ldw	r4,1332(sp)
    4954:	2080100c 	andi	r2,r4,64
    4958:	10006e26 	beq	r2,zero,4b14 <___vfprintf_internal_r+0x16f0>
    495c:	3c00000b 	ldhu	r16,0(r7)
    4960:	0023883a 	mov	r17,zero
    4964:	39c00104 	addi	r7,r7,4
    4968:	d9c14115 	stw	r7,1284(sp)
    496c:	003efa06 	br	4558 <___vfprintf_internal_r+0x1134>
    4970:	dc400e17 	ldw	r17,56(sp)
    4974:	07000074 	movhi	fp,1
    4978:	e73bf504 	addi	fp,fp,-4140
    497c:	9425883a 	add	r18,r18,r16
    4980:	8c400044 	addi	r17,r17,1
    4984:	008001c4 	movi	r2,7
    4988:	1f000015 	stw	fp,0(r3)
    498c:	1c000115 	stw	r16,4(r3)
    4990:	dc800f15 	stw	r18,60(sp)
    4994:	dc400e15 	stw	r17,56(sp)
    4998:	147d7016 	blt	r2,r17,3f5c <___vfprintf_internal_r+0xb38>
    499c:	18c00204 	addi	r3,r3,8
    49a0:	003d7506 	br	3f78 <___vfprintf_internal_r+0xb54>
    49a4:	dc800f17 	ldw	r18,60(sp)
    49a8:	dc400e17 	ldw	r17,56(sp)
    49ac:	07000074 	movhi	fp,1
    49b0:	e73bf904 	addi	fp,fp,-4124
    49b4:	003bba06 	br	38a0 <___vfprintf_internal_r+0x47c>
    49b8:	d9015017 	ldw	r4,1344(sp)
    49bc:	b00b883a 	mov	r5,r22
    49c0:	d9800d04 	addi	r6,sp,52
    49c4:	00033cc0 	call	33cc <__sprint_r>
    49c8:	103c4e1e 	bne	r2,zero,3b04 <___vfprintf_internal_r+0x6e0>
    49cc:	dc800f17 	ldw	r18,60(sp)
    49d0:	d8c01a04 	addi	r3,sp,104
    49d4:	003ce306 	br	3d64 <___vfprintf_internal_r+0x940>
    49d8:	3c000017 	ldw	r16,0(r7)
    49dc:	0009883a 	mov	r4,zero
    49e0:	39c00104 	addi	r7,r7,4
    49e4:	0023883a 	mov	r17,zero
    49e8:	d9c14115 	stw	r7,1284(sp)
    49ec:	d8000405 	stb	zero,16(sp)
    49f0:	003d1a06 	br	3e5c <___vfprintf_internal_r+0xa38>
    49f4:	38800017 	ldw	r2,0(r7)
    49f8:	39c00104 	addi	r7,r7,4
    49fc:	d9c14115 	stw	r7,1284(sp)
    4a00:	1023d7fa 	srai	r17,r2,31
    4a04:	1021883a 	mov	r16,r2
    4a08:	003d1206 	br	3e54 <___vfprintf_internal_r+0xa30>
    4a0c:	3c000017 	ldw	r16,0(r7)
    4a10:	01000044 	movi	r4,1
    4a14:	39c00104 	addi	r7,r7,4
    4a18:	0023883a 	mov	r17,zero
    4a1c:	d9c14115 	stw	r7,1284(sp)
    4a20:	d8000405 	stb	zero,16(sp)
    4a24:	003d0d06 	br	3e5c <___vfprintf_internal_r+0xa38>
    4a28:	00800074 	movhi	r2,1
    4a2c:	10bbf404 	addi	r2,r2,-4144
    4a30:	94800044 	addi	r18,r18,1
    4a34:	8c400044 	addi	r17,r17,1
    4a38:	a8800015 	stw	r2,0(r21)
    4a3c:	00c00044 	movi	r3,1
    4a40:	008001c4 	movi	r2,7
    4a44:	a8c00115 	stw	r3,4(r21)
    4a48:	dc800f15 	stw	r18,60(sp)
    4a4c:	dc400e15 	stw	r17,56(sp)
    4a50:	1440ca16 	blt	r2,r17,4d7c <___vfprintf_internal_r+0x1958>
    4a54:	a8c00204 	addi	r3,r21,8
    4a58:	2000061e 	bne	r4,zero,4a74 <___vfprintf_internal_r+0x1650>
    4a5c:	d9414817 	ldw	r5,1312(sp)
    4a60:	2800041e 	bne	r5,zero,4a74 <___vfprintf_internal_r+0x1650>
    4a64:	d9814d17 	ldw	r6,1332(sp)
    4a68:	3080004c 	andi	r2,r6,1
    4a6c:	1005003a 	cmpeq	r2,r2,zero
    4a70:	103bea1e 	bne	r2,zero,3a1c <___vfprintf_internal_r+0x5f8>
    4a74:	00800044 	movi	r2,1
    4a78:	dc400e17 	ldw	r17,56(sp)
    4a7c:	18800115 	stw	r2,4(r3)
    4a80:	d8814a17 	ldw	r2,1320(sp)
    4a84:	94800044 	addi	r18,r18,1
    4a88:	8c400044 	addi	r17,r17,1
    4a8c:	18800015 	stw	r2,0(r3)
    4a90:	008001c4 	movi	r2,7
    4a94:	dc800f15 	stw	r18,60(sp)
    4a98:	dc400e15 	stw	r17,56(sp)
    4a9c:	1440ca16 	blt	r2,r17,4dc8 <___vfprintf_internal_r+0x19a4>
    4aa0:	18c00204 	addi	r3,r3,8
    4aa4:	0121c83a 	sub	r16,zero,r4
    4aa8:	0400500e 	bge	zero,r16,4bec <___vfprintf_internal_r+0x17c8>
    4aac:	00800404 	movi	r2,16
    4ab0:	1400800e 	bge	r2,r16,4cb4 <___vfprintf_internal_r+0x1890>
    4ab4:	1027883a 	mov	r19,r2
    4ab8:	07000074 	movhi	fp,1
    4abc:	e73bf504 	addi	fp,fp,-4140
    4ac0:	050001c4 	movi	r20,7
    4ac4:	00000306 	br	4ad4 <___vfprintf_internal_r+0x16b0>
    4ac8:	18c00204 	addi	r3,r3,8
    4acc:	843ffc04 	addi	r16,r16,-16
    4ad0:	9c007a0e 	bge	r19,r16,4cbc <___vfprintf_internal_r+0x1898>
    4ad4:	94800404 	addi	r18,r18,16
    4ad8:	8c400044 	addi	r17,r17,1
    4adc:	1f000015 	stw	fp,0(r3)
    4ae0:	1cc00115 	stw	r19,4(r3)
    4ae4:	dc800f15 	stw	r18,60(sp)
    4ae8:	dc400e15 	stw	r17,56(sp)
    4aec:	a47ff60e 	bge	r20,r17,4ac8 <___vfprintf_internal_r+0x16a4>
    4af0:	d9015017 	ldw	r4,1344(sp)
    4af4:	b00b883a 	mov	r5,r22
    4af8:	d9800d04 	addi	r6,sp,52
    4afc:	00033cc0 	call	33cc <__sprint_r>
    4b00:	103c001e 	bne	r2,zero,3b04 <___vfprintf_internal_r+0x6e0>
    4b04:	dc800f17 	ldw	r18,60(sp)
    4b08:	dc400e17 	ldw	r17,56(sp)
    4b0c:	d8c01a04 	addi	r3,sp,104
    4b10:	003fee06 	br	4acc <___vfprintf_internal_r+0x16a8>
    4b14:	3c000017 	ldw	r16,0(r7)
    4b18:	0023883a 	mov	r17,zero
    4b1c:	39c00104 	addi	r7,r7,4
    4b20:	d9c14115 	stw	r7,1284(sp)
    4b24:	003e8c06 	br	4558 <___vfprintf_internal_r+0x1134>
    4b28:	d9401a04 	addi	r5,sp,104
    4b2c:	dd001004 	addi	r20,sp,64
    4b30:	d9414215 	stw	r5,1288(sp)
    4b34:	d9814517 	ldw	r6,1300(sp)
    4b38:	880a973a 	slli	r5,r17,28
    4b3c:	8004d13a 	srli	r2,r16,4
    4b40:	810003cc 	andi	r4,r16,15
    4b44:	3109883a 	add	r4,r6,r4
    4b48:	2884b03a 	or	r2,r5,r2
    4b4c:	21400003 	ldbu	r5,0(r4)
    4b50:	d9014217 	ldw	r4,1288(sp)
    4b54:	8806d13a 	srli	r3,r17,4
    4b58:	1021883a 	mov	r16,r2
    4b5c:	213fffc4 	addi	r4,r4,-1
    4b60:	d9014215 	stw	r4,1288(sp)
    4b64:	d9814217 	ldw	r6,1288(sp)
    4b68:	10c8b03a 	or	r4,r2,r3
    4b6c:	1823883a 	mov	r17,r3
    4b70:	31400005 	stb	r5,0(r6)
    4b74:	203fef1e 	bne	r4,zero,4b34 <___vfprintf_internal_r+0x1710>
    4b78:	003cc506 	br	3e90 <___vfprintf_internal_r+0xa6c>
    4b7c:	00800c04 	movi	r2,48
    4b80:	d98019c4 	addi	r6,sp,103
    4b84:	dd001004 	addi	r20,sp,64
    4b88:	d88019c5 	stb	r2,103(sp)
    4b8c:	d9814215 	stw	r6,1288(sp)
    4b90:	003cbf06 	br	3e90 <___vfprintf_internal_r+0xa6c>
    4b94:	dc400e17 	ldw	r17,56(sp)
    4b98:	07000074 	movhi	fp,1
    4b9c:	e73bf904 	addi	fp,fp,-4124
    4ba0:	003bc106 	br	3aa8 <___vfprintf_internal_r+0x684>
    4ba4:	d9414d17 	ldw	r5,1332(sp)
    4ba8:	2880040c 	andi	r2,r5,16
    4bac:	10007c26 	beq	r2,zero,4da0 <___vfprintf_internal_r+0x197c>
    4bb0:	38800017 	ldw	r2,0(r7)
    4bb4:	39c00104 	addi	r7,r7,4
    4bb8:	d9c14115 	stw	r7,1284(sp)
    4bbc:	d9814c17 	ldw	r6,1328(sp)
    4bc0:	d9c14117 	ldw	r7,1284(sp)
    4bc4:	11800015 	stw	r6,0(r2)
    4bc8:	003a7206 	br	3594 <___vfprintf_internal_r+0x170>
    4bcc:	d9015017 	ldw	r4,1344(sp)
    4bd0:	b00b883a 	mov	r5,r22
    4bd4:	d9800d04 	addi	r6,sp,52
    4bd8:	00033cc0 	call	33cc <__sprint_r>
    4bdc:	103bc91e 	bne	r2,zero,3b04 <___vfprintf_internal_r+0x6e0>
    4be0:	dc800f17 	ldw	r18,60(sp)
    4be4:	dc400e17 	ldw	r17,56(sp)
    4be8:	d8c01a04 	addi	r3,sp,104
    4bec:	d9014817 	ldw	r4,1312(sp)
    4bf0:	d9414217 	ldw	r5,1288(sp)
    4bf4:	8c400044 	addi	r17,r17,1
    4bf8:	9125883a 	add	r18,r18,r4
    4bfc:	008001c4 	movi	r2,7
    4c00:	19400015 	stw	r5,0(r3)
    4c04:	19000115 	stw	r4,4(r3)
    4c08:	dc800f15 	stw	r18,60(sp)
    4c0c:	dc400e15 	stw	r17,56(sp)
    4c10:	147ce816 	blt	r2,r17,3fb4 <___vfprintf_internal_r+0xb90>
    4c14:	18c00204 	addi	r3,r3,8
    4c18:	003b8006 	br	3a1c <___vfprintf_internal_r+0x5f8>
    4c1c:	38c00017 	ldw	r3,0(r7)
    4c20:	39000204 	addi	r4,r7,8
    4c24:	d9014115 	stw	r4,1284(sp)
    4c28:	d8c14315 	stw	r3,1292(sp)
    4c2c:	39c00117 	ldw	r7,4(r7)
    4c30:	d9c14415 	stw	r7,1296(sp)
    4c34:	003e1a06 	br	44a0 <___vfprintf_internal_r+0x107c>
    4c38:	0005883a 	mov	r2,zero
    4c3c:	1409c83a 	sub	r4,r2,r16
    4c40:	1105803a 	cmpltu	r2,r2,r4
    4c44:	044bc83a 	sub	r5,zero,r17
    4c48:	2885c83a 	sub	r2,r5,r2
    4c4c:	2021883a 	mov	r16,r4
    4c50:	1023883a 	mov	r17,r2
    4c54:	01000044 	movi	r4,1
    4c58:	00800b44 	movi	r2,45
    4c5c:	d8800405 	stb	r2,16(sp)
    4c60:	003c7e06 	br	3e5c <___vfprintf_internal_r+0xa38>
    4c64:	d9015017 	ldw	r4,1344(sp)
    4c68:	b00b883a 	mov	r5,r22
    4c6c:	d9800d04 	addi	r6,sp,52
    4c70:	00033cc0 	call	33cc <__sprint_r>
    4c74:	103ba31e 	bne	r2,zero,3b04 <___vfprintf_internal_r+0x6e0>
    4c78:	dc800f17 	ldw	r18,60(sp)
    4c7c:	dc400e17 	ldw	r17,56(sp)
    4c80:	d9000617 	ldw	r4,24(sp)
    4c84:	d9401a04 	addi	r5,sp,104
    4c88:	003da106 	br	4310 <___vfprintf_internal_r+0xeec>
    4c8c:	d9015017 	ldw	r4,1344(sp)
    4c90:	b00b883a 	mov	r5,r22
    4c94:	d9800d04 	addi	r6,sp,52
    4c98:	00033cc0 	call	33cc <__sprint_r>
    4c9c:	103b991e 	bne	r2,zero,3b04 <___vfprintf_internal_r+0x6e0>
    4ca0:	dc800f17 	ldw	r18,60(sp)
    4ca4:	dc400e17 	ldw	r17,56(sp)
    4ca8:	d9000617 	ldw	r4,24(sp)
    4cac:	d8c01a04 	addi	r3,sp,104
    4cb0:	003d8b06 	br	42e0 <___vfprintf_internal_r+0xebc>
    4cb4:	07000074 	movhi	fp,1
    4cb8:	e73bf504 	addi	fp,fp,-4140
    4cbc:	9425883a 	add	r18,r18,r16
    4cc0:	8c400044 	addi	r17,r17,1
    4cc4:	008001c4 	movi	r2,7
    4cc8:	1f000015 	stw	fp,0(r3)
    4ccc:	1c000115 	stw	r16,4(r3)
    4cd0:	dc800f15 	stw	r18,60(sp)
    4cd4:	dc400e15 	stw	r17,56(sp)
    4cd8:	147fbc16 	blt	r2,r17,4bcc <___vfprintf_internal_r+0x17a8>
    4cdc:	18c00204 	addi	r3,r3,8
    4ce0:	003fc206 	br	4bec <___vfprintf_internal_r+0x17c8>
    4ce4:	d9015017 	ldw	r4,1344(sp)
    4ce8:	b00b883a 	mov	r5,r22
    4cec:	d9800d04 	addi	r6,sp,52
    4cf0:	00033cc0 	call	33cc <__sprint_r>
    4cf4:	103b831e 	bne	r2,zero,3b04 <___vfprintf_internal_r+0x6e0>
    4cf8:	dc800f17 	ldw	r18,60(sp)
    4cfc:	d9000617 	ldw	r4,24(sp)
    4d00:	d8c01a04 	addi	r3,sp,104
    4d04:	003cfc06 	br	40f8 <___vfprintf_internal_r+0xcd4>
    4d08:	07000074 	movhi	fp,1
    4d0c:	e73bf504 	addi	fp,fp,-4140
    4d10:	003bde06 	br	3c8c <___vfprintf_internal_r+0x868>
    4d14:	00800074 	movhi	r2,1
    4d18:	10bbe304 	addi	r2,r2,-4212
    4d1c:	d8814215 	stw	r2,1288(sp)
    4d20:	003def06 	br	44e0 <___vfprintf_internal_r+0x10bc>
    4d24:	d9014317 	ldw	r4,1292(sp)
    4d28:	d9414417 	ldw	r5,1296(sp)
    4d2c:	000a6000 	call	a600 <__isnand>
    4d30:	10003926 	beq	r2,zero,4e18 <___vfprintf_internal_r+0x19f4>
    4d34:	d9414e17 	ldw	r5,1336(sp)
    4d38:	008011c4 	movi	r2,71
    4d3c:	1140ce16 	blt	r2,r5,5078 <___vfprintf_internal_r+0x1c54>
    4d40:	01800074 	movhi	r6,1
    4d44:	31bbe404 	addi	r6,r6,-4208
    4d48:	d9814215 	stw	r6,1288(sp)
    4d4c:	003de406 	br	44e0 <___vfprintf_internal_r+0x10bc>
    4d50:	d9014d17 	ldw	r4,1332(sp)
    4d54:	bdc00044 	addi	r23,r23,1
    4d58:	b8c00007 	ldb	r3,0(r23)
    4d5c:	21000814 	ori	r4,r4,32
    4d60:	d9014d15 	stw	r4,1332(sp)
    4d64:	003a2e06 	br	3620 <___vfprintf_internal_r+0x1fc>
    4d68:	dcc14615 	stw	r19,1304(sp)
    4d6c:	98011016 	blt	r19,zero,51b0 <___vfprintf_internal_r+0x1d8c>
    4d70:	980f883a 	mov	r7,r19
    4d74:	d8014715 	stw	zero,1308(sp)
    4d78:	003c4c06 	br	3eac <___vfprintf_internal_r+0xa88>
    4d7c:	d9015017 	ldw	r4,1344(sp)
    4d80:	b00b883a 	mov	r5,r22
    4d84:	d9800d04 	addi	r6,sp,52
    4d88:	00033cc0 	call	33cc <__sprint_r>
    4d8c:	103b5d1e 	bne	r2,zero,3b04 <___vfprintf_internal_r+0x6e0>
    4d90:	dc800f17 	ldw	r18,60(sp)
    4d94:	d9000617 	ldw	r4,24(sp)
    4d98:	d8c01a04 	addi	r3,sp,104
    4d9c:	003f2e06 	br	4a58 <___vfprintf_internal_r+0x1634>
    4da0:	d8c14d17 	ldw	r3,1332(sp)
    4da4:	1880100c 	andi	r2,r3,64
    4da8:	1000a026 	beq	r2,zero,502c <___vfprintf_internal_r+0x1c08>
    4dac:	38800017 	ldw	r2,0(r7)
    4db0:	39c00104 	addi	r7,r7,4
    4db4:	d9c14115 	stw	r7,1284(sp)
    4db8:	d9014c17 	ldw	r4,1328(sp)
    4dbc:	d9c14117 	ldw	r7,1284(sp)
    4dc0:	1100000d 	sth	r4,0(r2)
    4dc4:	0039f306 	br	3594 <___vfprintf_internal_r+0x170>
    4dc8:	d9015017 	ldw	r4,1344(sp)
    4dcc:	b00b883a 	mov	r5,r22
    4dd0:	d9800d04 	addi	r6,sp,52
    4dd4:	00033cc0 	call	33cc <__sprint_r>
    4dd8:	103b4a1e 	bne	r2,zero,3b04 <___vfprintf_internal_r+0x6e0>
    4ddc:	dc800f17 	ldw	r18,60(sp)
    4de0:	dc400e17 	ldw	r17,56(sp)
    4de4:	d9000617 	ldw	r4,24(sp)
    4de8:	d8c01a04 	addi	r3,sp,104
    4dec:	003f2d06 	br	4aa4 <___vfprintf_internal_r+0x1680>
    4df0:	00800184 	movi	r2,6
    4df4:	14c09a36 	bltu	r2,r19,5060 <___vfprintf_internal_r+0x1c3c>
    4df8:	dcc14615 	stw	r19,1304(sp)
    4dfc:	9800010e 	bge	r19,zero,4e04 <___vfprintf_internal_r+0x19e0>
    4e00:	d8014615 	stw	zero,1304(sp)
    4e04:	00800074 	movhi	r2,1
    4e08:	10bbe604 	addi	r2,r2,-4200
    4e0c:	980f883a 	mov	r7,r19
    4e10:	d8814215 	stw	r2,1288(sp)
    4e14:	003a7206 	br	37e0 <___vfprintf_internal_r+0x3bc>
    4e18:	00bfffc4 	movi	r2,-1
    4e1c:	9880e226 	beq	r19,r2,51a8 <___vfprintf_internal_r+0x1d84>
    4e20:	d9414e17 	ldw	r5,1336(sp)
    4e24:	008019c4 	movi	r2,103
    4e28:	2880dc26 	beq	r5,r2,519c <___vfprintf_internal_r+0x1d78>
    4e2c:	008011c4 	movi	r2,71
    4e30:	2880da26 	beq	r5,r2,519c <___vfprintf_internal_r+0x1d78>
    4e34:	d9414d17 	ldw	r5,1332(sp)
    4e38:	d9014417 	ldw	r4,1296(sp)
    4e3c:	d9814317 	ldw	r6,1292(sp)
    4e40:	29404014 	ori	r5,r5,256
    4e44:	d9414d15 	stw	r5,1332(sp)
    4e48:	2000cc16 	blt	r4,zero,517c <___vfprintf_internal_r+0x1d58>
    4e4c:	3021883a 	mov	r16,r6
    4e50:	2023883a 	mov	r17,r4
    4e54:	0039883a 	mov	fp,zero
    4e58:	d9414e17 	ldw	r5,1336(sp)
    4e5c:	00801984 	movi	r2,102
    4e60:	2880b726 	beq	r5,r2,5140 <___vfprintf_internal_r+0x1d1c>
    4e64:	00801184 	movi	r2,70
    4e68:	2880b526 	beq	r5,r2,5140 <___vfprintf_internal_r+0x1d1c>
    4e6c:	00801944 	movi	r2,101
    4e70:	2880c826 	beq	r5,r2,5194 <___vfprintf_internal_r+0x1d70>
    4e74:	00801144 	movi	r2,69
    4e78:	2880c626 	beq	r5,r2,5194 <___vfprintf_internal_r+0x1d70>
    4e7c:	9829883a 	mov	r20,r19
    4e80:	d9015017 	ldw	r4,1344(sp)
    4e84:	d8800604 	addi	r2,sp,24
    4e88:	880d883a 	mov	r6,r17
    4e8c:	d8800115 	stw	r2,4(sp)
    4e90:	d8c00704 	addi	r3,sp,28
    4e94:	d8800804 	addi	r2,sp,32
    4e98:	800b883a 	mov	r5,r16
    4e9c:	01c00084 	movi	r7,2
    4ea0:	d8c00215 	stw	r3,8(sp)
    4ea4:	d8800315 	stw	r2,12(sp)
    4ea8:	dd000015 	stw	r20,0(sp)
    4eac:	000568c0 	call	568c <_dtoa_r>
    4eb0:	d9814e17 	ldw	r6,1336(sp)
    4eb4:	d8814215 	stw	r2,1288(sp)
    4eb8:	008019c4 	movi	r2,103
    4ebc:	30809526 	beq	r6,r2,5114 <___vfprintf_internal_r+0x1cf0>
    4ec0:	d8c14e17 	ldw	r3,1336(sp)
    4ec4:	008011c4 	movi	r2,71
    4ec8:	18809226 	beq	r3,r2,5114 <___vfprintf_internal_r+0x1cf0>
    4ecc:	d9414217 	ldw	r5,1288(sp)
    4ed0:	d9814e17 	ldw	r6,1336(sp)
    4ed4:	00801984 	movi	r2,102
    4ed8:	2d25883a 	add	r18,r5,r20
    4edc:	30808626 	beq	r6,r2,50f8 <___vfprintf_internal_r+0x1cd4>
    4ee0:	00801184 	movi	r2,70
    4ee4:	30808426 	beq	r6,r2,50f8 <___vfprintf_internal_r+0x1cd4>
    4ee8:	000d883a 	mov	r6,zero
    4eec:	000f883a 	mov	r7,zero
    4ef0:	880b883a 	mov	r5,r17
    4ef4:	8009883a 	mov	r4,r16
    4ef8:	000c9040 	call	c904 <__eqdf2>
    4efc:	1000751e 	bne	r2,zero,50d4 <___vfprintf_internal_r+0x1cb0>
    4f00:	9005883a 	mov	r2,r18
    4f04:	dc800815 	stw	r18,32(sp)
    4f08:	d9014217 	ldw	r4,1288(sp)
    4f0c:	d9414e17 	ldw	r5,1336(sp)
    4f10:	00c019c4 	movi	r3,103
    4f14:	1125c83a 	sub	r18,r2,r4
    4f18:	28c06826 	beq	r5,r3,50bc <___vfprintf_internal_r+0x1c98>
    4f1c:	008011c4 	movi	r2,71
    4f20:	28806626 	beq	r5,r2,50bc <___vfprintf_internal_r+0x1c98>
    4f24:	d9000617 	ldw	r4,24(sp)
    4f28:	d8c14e17 	ldw	r3,1336(sp)
    4f2c:	00801944 	movi	r2,101
    4f30:	10c05516 	blt	r2,r3,5088 <___vfprintf_internal_r+0x1c64>
    4f34:	213fffc4 	addi	r4,r4,-1
    4f38:	d9000615 	stw	r4,24(sp)
    4f3c:	d8c00905 	stb	r3,36(sp)
    4f40:	2021883a 	mov	r16,r4
    4f44:	2000c116 	blt	r4,zero,524c <___vfprintf_internal_r+0x1e28>
    4f48:	00800ac4 	movi	r2,43
    4f4c:	d8800945 	stb	r2,37(sp)
    4f50:	00800244 	movi	r2,9
    4f54:	1400af0e 	bge	r2,r16,5214 <___vfprintf_internal_r+0x1df0>
    4f58:	1027883a 	mov	r19,r2
    4f5c:	dc400cc4 	addi	r17,sp,51
    4f60:	8009883a 	mov	r4,r16
    4f64:	01400284 	movi	r5,10
    4f68:	000d0740 	call	d074 <__modsi3>
    4f6c:	10800c04 	addi	r2,r2,48
    4f70:	8c7fffc4 	addi	r17,r17,-1
    4f74:	8009883a 	mov	r4,r16
    4f78:	01400284 	movi	r5,10
    4f7c:	88800005 	stb	r2,0(r17)
    4f80:	000d0140 	call	d014 <__divsi3>
    4f84:	1021883a 	mov	r16,r2
    4f88:	98bff516 	blt	r19,r2,4f60 <___vfprintf_internal_r+0x1b3c>
    4f8c:	10c00c04 	addi	r3,r2,48
    4f90:	d8800b04 	addi	r2,sp,44
    4f94:	108001c4 	addi	r2,r2,7
    4f98:	897fffc4 	addi	r5,r17,-1
    4f9c:	88ffffc5 	stb	r3,-1(r17)
    4fa0:	2880a72e 	bgeu	r5,r2,5240 <___vfprintf_internal_r+0x1e1c>
    4fa4:	1009883a 	mov	r4,r2
    4fa8:	d9800904 	addi	r6,sp,36
    4fac:	d8c00984 	addi	r3,sp,38
    4fb0:	28800003 	ldbu	r2,0(r5)
    4fb4:	29400044 	addi	r5,r5,1
    4fb8:	18800005 	stb	r2,0(r3)
    4fbc:	18c00044 	addi	r3,r3,1
    4fc0:	293ffb36 	bltu	r5,r4,4fb0 <___vfprintf_internal_r+0x1b8c>
    4fc4:	1987c83a 	sub	r3,r3,r6
    4fc8:	00800044 	movi	r2,1
    4fcc:	d8c14915 	stw	r3,1316(sp)
    4fd0:	90cf883a 	add	r7,r18,r3
    4fd4:	1480960e 	bge	r2,r18,5230 <___vfprintf_internal_r+0x1e0c>
    4fd8:	39c00044 	addi	r7,r7,1
    4fdc:	d9c14615 	stw	r7,1304(sp)
    4fe0:	38003416 	blt	r7,zero,50b4 <___vfprintf_internal_r+0x1c90>
    4fe4:	e0803fcc 	andi	r2,fp,255
    4fe8:	1080201c 	xori	r2,r2,128
    4fec:	10bfe004 	addi	r2,r2,-128
    4ff0:	10004e26 	beq	r2,zero,512c <___vfprintf_internal_r+0x1d08>
    4ff4:	00800b44 	movi	r2,45
    4ff8:	dc814815 	stw	r18,1312(sp)
    4ffc:	d8014715 	stw	zero,1308(sp)
    5000:	d8800405 	stb	r2,16(sp)
    5004:	003bab06 	br	3eb4 <___vfprintf_internal_r+0xa90>
    5008:	00800b44 	movi	r2,45
    500c:	d8800405 	stb	r2,16(sp)
    5010:	003d2d06 	br	44c8 <___vfprintf_internal_r+0x10a4>
    5014:	d9015017 	ldw	r4,1344(sp)
    5018:	b00b883a 	mov	r5,r22
    501c:	d9800d04 	addi	r6,sp,52
    5020:	00033cc0 	call	33cc <__sprint_r>
    5024:	103ab71e 	bne	r2,zero,3b04 <___vfprintf_internal_r+0x6e0>
    5028:	003ab506 	br	3b00 <___vfprintf_internal_r+0x6dc>
    502c:	38800017 	ldw	r2,0(r7)
    5030:	39c00104 	addi	r7,r7,4
    5034:	d9c14115 	stw	r7,1284(sp)
    5038:	d9414c17 	ldw	r5,1328(sp)
    503c:	d9c14117 	ldw	r7,1284(sp)
    5040:	11400015 	stw	r5,0(r2)
    5044:	00395306 	br	3594 <___vfprintf_internal_r+0x170>
    5048:	980f883a 	mov	r7,r19
    504c:	dcc14615 	stw	r19,1304(sp)
    5050:	d8014715 	stw	zero,1308(sp)
    5054:	003b9506 	br	3eac <___vfprintf_internal_r+0xa88>
    5058:	0027883a 	mov	r19,zero
    505c:	00397206 	br	3628 <___vfprintf_internal_r+0x204>
    5060:	00c00074 	movhi	r3,1
    5064:	18fbe604 	addi	r3,r3,-4200
    5068:	100f883a 	mov	r7,r2
    506c:	d8814615 	stw	r2,1304(sp)
    5070:	d8c14215 	stw	r3,1288(sp)
    5074:	0039da06 	br	37e0 <___vfprintf_internal_r+0x3bc>
    5078:	00800074 	movhi	r2,1
    507c:	10bbe504 	addi	r2,r2,-4204
    5080:	d8814215 	stw	r2,1288(sp)
    5084:	003d1606 	br	44e0 <___vfprintf_internal_r+0x10bc>
    5088:	d9414e17 	ldw	r5,1336(sp)
    508c:	00801984 	movi	r2,102
    5090:	28804926 	beq	r5,r2,51b8 <___vfprintf_internal_r+0x1d94>
    5094:	200f883a 	mov	r7,r4
    5098:	24805716 	blt	r4,r18,51f8 <___vfprintf_internal_r+0x1dd4>
    509c:	d9414d17 	ldw	r5,1332(sp)
    50a0:	2880004c 	andi	r2,r5,1
    50a4:	10000126 	beq	r2,zero,50ac <___vfprintf_internal_r+0x1c88>
    50a8:	21c00044 	addi	r7,r4,1
    50ac:	d9c14615 	stw	r7,1304(sp)
    50b0:	383fcc0e 	bge	r7,zero,4fe4 <___vfprintf_internal_r+0x1bc0>
    50b4:	d8014615 	stw	zero,1304(sp)
    50b8:	003fca06 	br	4fe4 <___vfprintf_internal_r+0x1bc0>
    50bc:	d9000617 	ldw	r4,24(sp)
    50c0:	00bfff04 	movi	r2,-4
    50c4:	1100480e 	bge	r2,r4,51e8 <___vfprintf_internal_r+0x1dc4>
    50c8:	99004716 	blt	r19,r4,51e8 <___vfprintf_internal_r+0x1dc4>
    50cc:	d8c14e15 	stw	r3,1336(sp)
    50d0:	003ff006 	br	5094 <___vfprintf_internal_r+0x1c70>
    50d4:	d8800817 	ldw	r2,32(sp)
    50d8:	14bf8b2e 	bgeu	r2,r18,4f08 <___vfprintf_internal_r+0x1ae4>
    50dc:	9007883a 	mov	r3,r18
    50e0:	01000c04 	movi	r4,48
    50e4:	11000005 	stb	r4,0(r2)
    50e8:	10800044 	addi	r2,r2,1
    50ec:	d8800815 	stw	r2,32(sp)
    50f0:	18bffc1e 	bne	r3,r2,50e4 <___vfprintf_internal_r+0x1cc0>
    50f4:	003f8406 	br	4f08 <___vfprintf_internal_r+0x1ae4>
    50f8:	d8814217 	ldw	r2,1288(sp)
    50fc:	10c00007 	ldb	r3,0(r2)
    5100:	00800c04 	movi	r2,48
    5104:	18805b26 	beq	r3,r2,5274 <___vfprintf_internal_r+0x1e50>
    5108:	d9000617 	ldw	r4,24(sp)
    510c:	9125883a 	add	r18,r18,r4
    5110:	003f7506 	br	4ee8 <___vfprintf_internal_r+0x1ac4>
    5114:	d9014d17 	ldw	r4,1332(sp)
    5118:	2080004c 	andi	r2,r4,1
    511c:	1005003a 	cmpeq	r2,r2,zero
    5120:	103f6a26 	beq	r2,zero,4ecc <___vfprintf_internal_r+0x1aa8>
    5124:	d8800817 	ldw	r2,32(sp)
    5128:	003f7706 	br	4f08 <___vfprintf_internal_r+0x1ae4>
    512c:	d9c14615 	stw	r7,1304(sp)
    5130:	38004d16 	blt	r7,zero,5268 <___vfprintf_internal_r+0x1e44>
    5134:	dc814815 	stw	r18,1312(sp)
    5138:	d8014715 	stw	zero,1308(sp)
    513c:	003b5b06 	br	3eac <___vfprintf_internal_r+0xa88>
    5140:	d9015017 	ldw	r4,1344(sp)
    5144:	d8800604 	addi	r2,sp,24
    5148:	d8800115 	stw	r2,4(sp)
    514c:	d8c00704 	addi	r3,sp,28
    5150:	d8800804 	addi	r2,sp,32
    5154:	800b883a 	mov	r5,r16
    5158:	880d883a 	mov	r6,r17
    515c:	01c000c4 	movi	r7,3
    5160:	d8c00215 	stw	r3,8(sp)
    5164:	d8800315 	stw	r2,12(sp)
    5168:	dcc00015 	stw	r19,0(sp)
    516c:	9829883a 	mov	r20,r19
    5170:	000568c0 	call	568c <_dtoa_r>
    5174:	d8814215 	stw	r2,1288(sp)
    5178:	003f5106 	br	4ec0 <___vfprintf_internal_r+0x1a9c>
    517c:	d8c14317 	ldw	r3,1292(sp)
    5180:	d9014417 	ldw	r4,1296(sp)
    5184:	07000b44 	movi	fp,45
    5188:	1821883a 	mov	r16,r3
    518c:	2460003c 	xorhi	r17,r4,32768
    5190:	003f3106 	br	4e58 <___vfprintf_internal_r+0x1a34>
    5194:	9d000044 	addi	r20,r19,1
    5198:	003f3906 	br	4e80 <___vfprintf_internal_r+0x1a5c>
    519c:	983f251e 	bne	r19,zero,4e34 <___vfprintf_internal_r+0x1a10>
    51a0:	04c00044 	movi	r19,1
    51a4:	003f2306 	br	4e34 <___vfprintf_internal_r+0x1a10>
    51a8:	04c00184 	movi	r19,6
    51ac:	003f2106 	br	4e34 <___vfprintf_internal_r+0x1a10>
    51b0:	d8014615 	stw	zero,1304(sp)
    51b4:	003eee06 	br	4d70 <___vfprintf_internal_r+0x194c>
    51b8:	200f883a 	mov	r7,r4
    51bc:	0100370e 	bge	zero,r4,529c <___vfprintf_internal_r+0x1e78>
    51c0:	9800031e 	bne	r19,zero,51d0 <___vfprintf_internal_r+0x1dac>
    51c4:	d9814d17 	ldw	r6,1332(sp)
    51c8:	3080004c 	andi	r2,r6,1
    51cc:	103fb726 	beq	r2,zero,50ac <___vfprintf_internal_r+0x1c88>
    51d0:	20800044 	addi	r2,r4,1
    51d4:	98a7883a 	add	r19,r19,r2
    51d8:	dcc14615 	stw	r19,1304(sp)
    51dc:	980f883a 	mov	r7,r19
    51e0:	983f800e 	bge	r19,zero,4fe4 <___vfprintf_internal_r+0x1bc0>
    51e4:	003fb306 	br	50b4 <___vfprintf_internal_r+0x1c90>
    51e8:	d9814e17 	ldw	r6,1336(sp)
    51ec:	31bfff84 	addi	r6,r6,-2
    51f0:	d9814e15 	stw	r6,1336(sp)
    51f4:	003f4c06 	br	4f28 <___vfprintf_internal_r+0x1b04>
    51f8:	0100180e 	bge	zero,r4,525c <___vfprintf_internal_r+0x1e38>
    51fc:	00800044 	movi	r2,1
    5200:	1485883a 	add	r2,r2,r18
    5204:	d8814615 	stw	r2,1304(sp)
    5208:	100f883a 	mov	r7,r2
    520c:	103f750e 	bge	r2,zero,4fe4 <___vfprintf_internal_r+0x1bc0>
    5210:	003fa806 	br	50b4 <___vfprintf_internal_r+0x1c90>
    5214:	80c00c04 	addi	r3,r16,48
    5218:	00800c04 	movi	r2,48
    521c:	d8c009c5 	stb	r3,39(sp)
    5220:	d9800904 	addi	r6,sp,36
    5224:	d8c00a04 	addi	r3,sp,40
    5228:	d8800985 	stb	r2,38(sp)
    522c:	003f6506 	br	4fc4 <___vfprintf_internal_r+0x1ba0>
    5230:	d9014d17 	ldw	r4,1332(sp)
    5234:	2084703a 	and	r2,r4,r2
    5238:	103f9c26 	beq	r2,zero,50ac <___vfprintf_internal_r+0x1c88>
    523c:	003f6606 	br	4fd8 <___vfprintf_internal_r+0x1bb4>
    5240:	d9800904 	addi	r6,sp,36
    5244:	d8c00984 	addi	r3,sp,38
    5248:	003f5e06 	br	4fc4 <___vfprintf_internal_r+0x1ba0>
    524c:	00800b44 	movi	r2,45
    5250:	0121c83a 	sub	r16,zero,r4
    5254:	d8800945 	stb	r2,37(sp)
    5258:	003f3d06 	br	4f50 <___vfprintf_internal_r+0x1b2c>
    525c:	00800084 	movi	r2,2
    5260:	1105c83a 	sub	r2,r2,r4
    5264:	003fe606 	br	5200 <___vfprintf_internal_r+0x1ddc>
    5268:	d8014615 	stw	zero,1304(sp)
    526c:	dc814815 	stw	r18,1312(sp)
    5270:	003fb106 	br	5138 <___vfprintf_internal_r+0x1d14>
    5274:	000d883a 	mov	r6,zero
    5278:	000f883a 	mov	r7,zero
    527c:	8009883a 	mov	r4,r16
    5280:	880b883a 	mov	r5,r17
    5284:	000c98c0 	call	c98c <__nedf2>
    5288:	103f9f26 	beq	r2,zero,5108 <___vfprintf_internal_r+0x1ce4>
    528c:	00800044 	movi	r2,1
    5290:	1509c83a 	sub	r4,r2,r20
    5294:	d9000615 	stw	r4,24(sp)
    5298:	003f9b06 	br	5108 <___vfprintf_internal_r+0x1ce4>
    529c:	98000d1e 	bne	r19,zero,52d4 <___vfprintf_internal_r+0x1eb0>
    52a0:	d8c14d17 	ldw	r3,1332(sp)
    52a4:	1880004c 	andi	r2,r3,1
    52a8:	10000a1e 	bne	r2,zero,52d4 <___vfprintf_internal_r+0x1eb0>
    52ac:	01000044 	movi	r4,1
    52b0:	200f883a 	mov	r7,r4
    52b4:	d9014615 	stw	r4,1304(sp)
    52b8:	003f4a06 	br	4fe4 <___vfprintf_internal_r+0x1bc0>
    52bc:	3cc00017 	ldw	r19,0(r7)
    52c0:	39c00104 	addi	r7,r7,4
    52c4:	983d0e0e 	bge	r19,zero,4700 <___vfprintf_internal_r+0x12dc>
    52c8:	b8c00007 	ldb	r3,0(r23)
    52cc:	04ffffc4 	movi	r19,-1
    52d0:	0038d306 	br	3620 <___vfprintf_internal_r+0x1fc>
    52d4:	9cc00084 	addi	r19,r19,2
    52d8:	dcc14615 	stw	r19,1304(sp)
    52dc:	980f883a 	mov	r7,r19
    52e0:	983f400e 	bge	r19,zero,4fe4 <___vfprintf_internal_r+0x1bc0>
    52e4:	003f7306 	br	50b4 <___vfprintf_internal_r+0x1c90>

000052e8 <__vfprintf_internal>:
    52e8:	00800074 	movhi	r2,1
    52ec:	10837004 	addi	r2,r2,3520
    52f0:	2013883a 	mov	r9,r4
    52f4:	11000017 	ldw	r4,0(r2)
    52f8:	2805883a 	mov	r2,r5
    52fc:	300f883a 	mov	r7,r6
    5300:	480b883a 	mov	r5,r9
    5304:	100d883a 	mov	r6,r2
    5308:	00034241 	jmpi	3424 <___vfprintf_internal_r>

0000530c <__swsetup_r>:
    530c:	00800074 	movhi	r2,1
    5310:	10837004 	addi	r2,r2,3520
    5314:	10c00017 	ldw	r3,0(r2)
    5318:	defffd04 	addi	sp,sp,-12
    531c:	dc400115 	stw	r17,4(sp)
    5320:	dc000015 	stw	r16,0(sp)
    5324:	dfc00215 	stw	ra,8(sp)
    5328:	2023883a 	mov	r17,r4
    532c:	2821883a 	mov	r16,r5
    5330:	18000226 	beq	r3,zero,533c <__swsetup_r+0x30>
    5334:	18800e17 	ldw	r2,56(r3)
    5338:	10001f26 	beq	r2,zero,53b8 <__swsetup_r+0xac>
    533c:	8100030b 	ldhu	r4,12(r16)
    5340:	2080020c 	andi	r2,r4,8
    5344:	10002826 	beq	r2,zero,53e8 <__swsetup_r+0xdc>
    5348:	81400417 	ldw	r5,16(r16)
    534c:	28001d26 	beq	r5,zero,53c4 <__swsetup_r+0xb8>
    5350:	2080004c 	andi	r2,r4,1
    5354:	1005003a 	cmpeq	r2,r2,zero
    5358:	10000b26 	beq	r2,zero,5388 <__swsetup_r+0x7c>
    535c:	2080008c 	andi	r2,r4,2
    5360:	10001226 	beq	r2,zero,53ac <__swsetup_r+0xa0>
    5364:	0005883a 	mov	r2,zero
    5368:	80800215 	stw	r2,8(r16)
    536c:	28000b26 	beq	r5,zero,539c <__swsetup_r+0x90>
    5370:	0005883a 	mov	r2,zero
    5374:	dfc00217 	ldw	ra,8(sp)
    5378:	dc400117 	ldw	r17,4(sp)
    537c:	dc000017 	ldw	r16,0(sp)
    5380:	dec00304 	addi	sp,sp,12
    5384:	f800283a 	ret
    5388:	80800517 	ldw	r2,20(r16)
    538c:	80000215 	stw	zero,8(r16)
    5390:	0085c83a 	sub	r2,zero,r2
    5394:	80800615 	stw	r2,24(r16)
    5398:	283ff51e 	bne	r5,zero,5370 <__swsetup_r+0x64>
    539c:	2080200c 	andi	r2,r4,128
    53a0:	103ff326 	beq	r2,zero,5370 <__swsetup_r+0x64>
    53a4:	00bfffc4 	movi	r2,-1
    53a8:	003ff206 	br	5374 <__swsetup_r+0x68>
    53ac:	80800517 	ldw	r2,20(r16)
    53b0:	80800215 	stw	r2,8(r16)
    53b4:	003fed06 	br	536c <__swsetup_r+0x60>
    53b8:	1809883a 	mov	r4,r3
    53bc:	0006ed80 	call	6ed8 <__sinit>
    53c0:	003fde06 	br	533c <__swsetup_r+0x30>
    53c4:	20c0a00c 	andi	r3,r4,640
    53c8:	00808004 	movi	r2,512
    53cc:	18bfe026 	beq	r3,r2,5350 <__swsetup_r+0x44>
    53d0:	8809883a 	mov	r4,r17
    53d4:	800b883a 	mov	r5,r16
    53d8:	00088500 	call	8850 <__smakebuf_r>
    53dc:	8100030b 	ldhu	r4,12(r16)
    53e0:	81400417 	ldw	r5,16(r16)
    53e4:	003fda06 	br	5350 <__swsetup_r+0x44>
    53e8:	2080040c 	andi	r2,r4,16
    53ec:	103fed26 	beq	r2,zero,53a4 <__swsetup_r+0x98>
    53f0:	2080010c 	andi	r2,r4,4
    53f4:	10001226 	beq	r2,zero,5440 <__swsetup_r+0x134>
    53f8:	81400c17 	ldw	r5,48(r16)
    53fc:	28000526 	beq	r5,zero,5414 <__swsetup_r+0x108>
    5400:	80801004 	addi	r2,r16,64
    5404:	28800226 	beq	r5,r2,5410 <__swsetup_r+0x104>
    5408:	8809883a 	mov	r4,r17
    540c:	00072900 	call	7290 <_free_r>
    5410:	80000c15 	stw	zero,48(r16)
    5414:	8080030b 	ldhu	r2,12(r16)
    5418:	81400417 	ldw	r5,16(r16)
    541c:	80000115 	stw	zero,4(r16)
    5420:	10bff6cc 	andi	r2,r2,65499
    5424:	8080030d 	sth	r2,12(r16)
    5428:	81400015 	stw	r5,0(r16)
    542c:	8080030b 	ldhu	r2,12(r16)
    5430:	10800214 	ori	r2,r2,8
    5434:	113fffcc 	andi	r4,r2,65535
    5438:	8080030d 	sth	r2,12(r16)
    543c:	003fc306 	br	534c <__swsetup_r+0x40>
    5440:	81400417 	ldw	r5,16(r16)
    5444:	003ff906 	br	542c <__swsetup_r+0x120>

00005448 <quorem>:
    5448:	28c00417 	ldw	r3,16(r5)
    544c:	20800417 	ldw	r2,16(r4)
    5450:	defff104 	addi	sp,sp,-60
    5454:	dfc00e15 	stw	ra,56(sp)
    5458:	df000d15 	stw	fp,52(sp)
    545c:	ddc00c15 	stw	r23,48(sp)
    5460:	dd800b15 	stw	r22,44(sp)
    5464:	dd400a15 	stw	r21,40(sp)
    5468:	dd000915 	stw	r20,36(sp)
    546c:	dcc00815 	stw	r19,32(sp)
    5470:	dc800715 	stw	r18,28(sp)
    5474:	dc400615 	stw	r17,24(sp)
    5478:	dc000515 	stw	r16,20(sp)
    547c:	d9000315 	stw	r4,12(sp)
    5480:	d9400415 	stw	r5,16(sp)
    5484:	10c07f16 	blt	r2,r3,5684 <quorem+0x23c>
    5488:	1d3fffc4 	addi	r20,r3,-1
    548c:	d8c00417 	ldw	r3,16(sp)
    5490:	d9000317 	ldw	r4,12(sp)
    5494:	a505883a 	add	r2,r20,r20
    5498:	1085883a 	add	r2,r2,r2
    549c:	1cc00504 	addi	r19,r3,20
    54a0:	25c00504 	addi	r23,r4,20
    54a4:	98ad883a 	add	r22,r19,r2
    54a8:	15c7883a 	add	r3,r2,r23
    54ac:	b1400017 	ldw	r5,0(r22)
    54b0:	19000017 	ldw	r4,0(r3)
    54b4:	d8c00015 	stw	r3,0(sp)
    54b8:	29400044 	addi	r5,r5,1
    54bc:	d9000215 	stw	r4,8(sp)
    54c0:	000d0d40 	call	d0d4 <__udivsi3>
    54c4:	1039883a 	mov	fp,r2
    54c8:	10003d1e 	bne	r2,zero,55c0 <quorem+0x178>
    54cc:	d9400417 	ldw	r5,16(sp)
    54d0:	d9000317 	ldw	r4,12(sp)
    54d4:	0008eb00 	call	8eb0 <__mcmp>
    54d8:	10002c16 	blt	r2,zero,558c <quorem+0x144>
    54dc:	e7000044 	addi	fp,fp,1
    54e0:	b80f883a 	mov	r7,r23
    54e4:	0011883a 	mov	r8,zero
    54e8:	0009883a 	mov	r4,zero
    54ec:	99400017 	ldw	r5,0(r19)
    54f0:	38c00017 	ldw	r3,0(r7)
    54f4:	9cc00104 	addi	r19,r19,4
    54f8:	28bfffcc 	andi	r2,r5,65535
    54fc:	2085883a 	add	r2,r4,r2
    5500:	11bfffcc 	andi	r6,r2,65535
    5504:	193fffcc 	andi	r4,r3,65535
    5508:	1004d43a 	srli	r2,r2,16
    550c:	280ad43a 	srli	r5,r5,16
    5510:	2189c83a 	sub	r4,r4,r6
    5514:	2209883a 	add	r4,r4,r8
    5518:	1806d43a 	srli	r3,r3,16
    551c:	288b883a 	add	r5,r5,r2
    5520:	200dd43a 	srai	r6,r4,16
    5524:	28bfffcc 	andi	r2,r5,65535
    5528:	1887c83a 	sub	r3,r3,r2
    552c:	1987883a 	add	r3,r3,r6
    5530:	3900000d 	sth	r4,0(r7)
    5534:	38c0008d 	sth	r3,2(r7)
    5538:	2808d43a 	srli	r4,r5,16
    553c:	39c00104 	addi	r7,r7,4
    5540:	1811d43a 	srai	r8,r3,16
    5544:	b4ffe92e 	bgeu	r22,r19,54ec <quorem+0xa4>
    5548:	a505883a 	add	r2,r20,r20
    554c:	1085883a 	add	r2,r2,r2
    5550:	b885883a 	add	r2,r23,r2
    5554:	10c00017 	ldw	r3,0(r2)
    5558:	18000c1e 	bne	r3,zero,558c <quorem+0x144>
    555c:	113fff04 	addi	r4,r2,-4
    5560:	b900082e 	bgeu	r23,r4,5584 <quorem+0x13c>
    5564:	10bfff17 	ldw	r2,-4(r2)
    5568:	10000326 	beq	r2,zero,5578 <quorem+0x130>
    556c:	00000506 	br	5584 <quorem+0x13c>
    5570:	20800017 	ldw	r2,0(r4)
    5574:	1000031e 	bne	r2,zero,5584 <quorem+0x13c>
    5578:	213fff04 	addi	r4,r4,-4
    557c:	a53fffc4 	addi	r20,r20,-1
    5580:	b93ffb36 	bltu	r23,r4,5570 <quorem+0x128>
    5584:	d9000317 	ldw	r4,12(sp)
    5588:	25000415 	stw	r20,16(r4)
    558c:	e005883a 	mov	r2,fp
    5590:	dfc00e17 	ldw	ra,56(sp)
    5594:	df000d17 	ldw	fp,52(sp)
    5598:	ddc00c17 	ldw	r23,48(sp)
    559c:	dd800b17 	ldw	r22,44(sp)
    55a0:	dd400a17 	ldw	r21,40(sp)
    55a4:	dd000917 	ldw	r20,36(sp)
    55a8:	dcc00817 	ldw	r19,32(sp)
    55ac:	dc800717 	ldw	r18,28(sp)
    55b0:	dc400617 	ldw	r17,24(sp)
    55b4:	dc000517 	ldw	r16,20(sp)
    55b8:	dec00f04 	addi	sp,sp,60
    55bc:	f800283a 	ret
    55c0:	b823883a 	mov	r17,r23
    55c4:	9825883a 	mov	r18,r19
    55c8:	d8000115 	stw	zero,4(sp)
    55cc:	002b883a 	mov	r21,zero
    55d0:	94000017 	ldw	r16,0(r18)
    55d4:	e009883a 	mov	r4,fp
    55d8:	94800104 	addi	r18,r18,4
    55dc:	817fffcc 	andi	r5,r16,65535
    55e0:	000d0e40 	call	d0e4 <__mulsi3>
    55e4:	800ad43a 	srli	r5,r16,16
    55e8:	e009883a 	mov	r4,fp
    55ec:	a8a1883a 	add	r16,r21,r2
    55f0:	000d0e40 	call	d0e4 <__mulsi3>
    55f4:	89000017 	ldw	r4,0(r17)
    55f8:	80ffffcc 	andi	r3,r16,65535
    55fc:	8020d43a 	srli	r16,r16,16
    5600:	217fffcc 	andi	r5,r4,65535
    5604:	28cbc83a 	sub	r5,r5,r3
    5608:	d8c00117 	ldw	r3,4(sp)
    560c:	2008d43a 	srli	r4,r4,16
    5610:	1405883a 	add	r2,r2,r16
    5614:	28cb883a 	add	r5,r5,r3
    5618:	280dd43a 	srai	r6,r5,16
    561c:	10ffffcc 	andi	r3,r2,65535
    5620:	20c9c83a 	sub	r4,r4,r3
    5624:	2189883a 	add	r4,r4,r6
    5628:	8900008d 	sth	r4,2(r17)
    562c:	2009d43a 	srai	r4,r4,16
    5630:	8940000d 	sth	r5,0(r17)
    5634:	102ad43a 	srli	r21,r2,16
    5638:	8c400104 	addi	r17,r17,4
    563c:	d9000115 	stw	r4,4(sp)
    5640:	b4bfe32e 	bgeu	r22,r18,55d0 <quorem+0x188>
    5644:	d9000217 	ldw	r4,8(sp)
    5648:	203fa01e 	bne	r4,zero,54cc <quorem+0x84>
    564c:	d8800017 	ldw	r2,0(sp)
    5650:	10ffff04 	addi	r3,r2,-4
    5654:	b8c0082e 	bgeu	r23,r3,5678 <quorem+0x230>
    5658:	10bfff17 	ldw	r2,-4(r2)
    565c:	10000326 	beq	r2,zero,566c <quorem+0x224>
    5660:	00000506 	br	5678 <quorem+0x230>
    5664:	18800017 	ldw	r2,0(r3)
    5668:	1000031e 	bne	r2,zero,5678 <quorem+0x230>
    566c:	18ffff04 	addi	r3,r3,-4
    5670:	a53fffc4 	addi	r20,r20,-1
    5674:	b8fffb36 	bltu	r23,r3,5664 <quorem+0x21c>
    5678:	d8c00317 	ldw	r3,12(sp)
    567c:	1d000415 	stw	r20,16(r3)
    5680:	003f9206 	br	54cc <quorem+0x84>
    5684:	0005883a 	mov	r2,zero
    5688:	003fc106 	br	5590 <quorem+0x148>

0000568c <_dtoa_r>:
    568c:	22001017 	ldw	r8,64(r4)
    5690:	deffda04 	addi	sp,sp,-152
    5694:	dd402115 	stw	r21,132(sp)
    5698:	dd002015 	stw	r20,128(sp)
    569c:	dc801e15 	stw	r18,120(sp)
    56a0:	dc401d15 	stw	r17,116(sp)
    56a4:	dfc02515 	stw	ra,148(sp)
    56a8:	df002415 	stw	fp,144(sp)
    56ac:	ddc02315 	stw	r23,140(sp)
    56b0:	dd802215 	stw	r22,136(sp)
    56b4:	dcc01f15 	stw	r19,124(sp)
    56b8:	dc001c15 	stw	r16,112(sp)
    56bc:	d9001615 	stw	r4,88(sp)
    56c0:	3023883a 	mov	r17,r6
    56c4:	2829883a 	mov	r20,r5
    56c8:	d9c01715 	stw	r7,92(sp)
    56cc:	dc802817 	ldw	r18,160(sp)
    56d0:	302b883a 	mov	r21,r6
    56d4:	40000a26 	beq	r8,zero,5700 <_dtoa_r+0x74>
    56d8:	20801117 	ldw	r2,68(r4)
    56dc:	400b883a 	mov	r5,r8
    56e0:	40800115 	stw	r2,4(r8)
    56e4:	20c01117 	ldw	r3,68(r4)
    56e8:	00800044 	movi	r2,1
    56ec:	10c4983a 	sll	r2,r2,r3
    56f0:	40800215 	stw	r2,8(r8)
    56f4:	0008d540 	call	8d54 <_Bfree>
    56f8:	d8c01617 	ldw	r3,88(sp)
    56fc:	18001015 	stw	zero,64(r3)
    5700:	8800a316 	blt	r17,zero,5990 <_dtoa_r+0x304>
    5704:	90000015 	stw	zero,0(r18)
    5708:	a8dffc2c 	andhi	r3,r21,32752
    570c:	009ffc34 	movhi	r2,32752
    5710:	18809126 	beq	r3,r2,5958 <_dtoa_r+0x2cc>
    5714:	000d883a 	mov	r6,zero
    5718:	000f883a 	mov	r7,zero
    571c:	a009883a 	mov	r4,r20
    5720:	a80b883a 	mov	r5,r21
    5724:	dd001215 	stw	r20,72(sp)
    5728:	dd401315 	stw	r21,76(sp)
    572c:	000c98c0 	call	c98c <__nedf2>
    5730:	1000171e 	bne	r2,zero,5790 <_dtoa_r+0x104>
    5734:	d9802717 	ldw	r6,156(sp)
    5738:	00800044 	movi	r2,1
    573c:	30800015 	stw	r2,0(r6)
    5740:	d8802917 	ldw	r2,164(sp)
    5744:	10029b26 	beq	r2,zero,61b4 <_dtoa_r+0xb28>
    5748:	d9002917 	ldw	r4,164(sp)
    574c:	00800074 	movhi	r2,1
    5750:	10bbf444 	addi	r2,r2,-4143
    5754:	10ffffc4 	addi	r3,r2,-1
    5758:	20800015 	stw	r2,0(r4)
    575c:	1805883a 	mov	r2,r3
    5760:	dfc02517 	ldw	ra,148(sp)
    5764:	df002417 	ldw	fp,144(sp)
    5768:	ddc02317 	ldw	r23,140(sp)
    576c:	dd802217 	ldw	r22,136(sp)
    5770:	dd402117 	ldw	r21,132(sp)
    5774:	dd002017 	ldw	r20,128(sp)
    5778:	dcc01f17 	ldw	r19,124(sp)
    577c:	dc801e17 	ldw	r18,120(sp)
    5780:	dc401d17 	ldw	r17,116(sp)
    5784:	dc001c17 	ldw	r16,112(sp)
    5788:	dec02604 	addi	sp,sp,152
    578c:	f800283a 	ret
    5790:	d9001617 	ldw	r4,88(sp)
    5794:	d9401217 	ldw	r5,72(sp)
    5798:	d8800104 	addi	r2,sp,4
    579c:	a80d883a 	mov	r6,r21
    57a0:	d9c00204 	addi	r7,sp,8
    57a4:	d8800015 	stw	r2,0(sp)
    57a8:	00093900 	call	9390 <__d2b>
    57ac:	d8800715 	stw	r2,28(sp)
    57b0:	a804d53a 	srli	r2,r21,20
    57b4:	1101ffcc 	andi	r4,r2,2047
    57b8:	20008626 	beq	r4,zero,59d4 <_dtoa_r+0x348>
    57bc:	d8c01217 	ldw	r3,72(sp)
    57c0:	00800434 	movhi	r2,16
    57c4:	10bfffc4 	addi	r2,r2,-1
    57c8:	ddc00117 	ldw	r23,4(sp)
    57cc:	a884703a 	and	r2,r21,r2
    57d0:	1811883a 	mov	r8,r3
    57d4:	124ffc34 	orhi	r9,r2,16368
    57d8:	25bf0044 	addi	r22,r4,-1023
    57dc:	d8000815 	stw	zero,32(sp)
    57e0:	0005883a 	mov	r2,zero
    57e4:	00cffe34 	movhi	r3,16376
    57e8:	480b883a 	mov	r5,r9
    57ec:	4009883a 	mov	r4,r8
    57f0:	180f883a 	mov	r7,r3
    57f4:	100d883a 	mov	r6,r2
    57f8:	000c1f40 	call	c1f4 <__subdf3>
    57fc:	0218dbf4 	movhi	r8,25455
    5800:	4210d844 	addi	r8,r8,17249
    5804:	024ff4f4 	movhi	r9,16339
    5808:	4a61e9c4 	addi	r9,r9,-30809
    580c:	480f883a 	mov	r7,r9
    5810:	400d883a 	mov	r6,r8
    5814:	180b883a 	mov	r5,r3
    5818:	1009883a 	mov	r4,r2
    581c:	000c2e80 	call	c2e8 <__muldf3>
    5820:	0222d874 	movhi	r8,35681
    5824:	42322cc4 	addi	r8,r8,-14157
    5828:	024ff1f4 	movhi	r9,16327
    582c:	4a628a04 	addi	r9,r9,-30168
    5830:	480f883a 	mov	r7,r9
    5834:	400d883a 	mov	r6,r8
    5838:	180b883a 	mov	r5,r3
    583c:	1009883a 	mov	r4,r2
    5840:	000c2740 	call	c274 <__adddf3>
    5844:	b009883a 	mov	r4,r22
    5848:	1021883a 	mov	r16,r2
    584c:	1823883a 	mov	r17,r3
    5850:	000cc340 	call	cc34 <__floatsidf>
    5854:	021427f4 	movhi	r8,20639
    5858:	421e7ec4 	addi	r8,r8,31227
    585c:	024ff4f4 	movhi	r9,16339
    5860:	4a5104c4 	addi	r9,r9,17427
    5864:	480f883a 	mov	r7,r9
    5868:	400d883a 	mov	r6,r8
    586c:	180b883a 	mov	r5,r3
    5870:	1009883a 	mov	r4,r2
    5874:	000c2e80 	call	c2e8 <__muldf3>
    5878:	180f883a 	mov	r7,r3
    587c:	880b883a 	mov	r5,r17
    5880:	100d883a 	mov	r6,r2
    5884:	8009883a 	mov	r4,r16
    5888:	000c2740 	call	c274 <__adddf3>
    588c:	1009883a 	mov	r4,r2
    5890:	180b883a 	mov	r5,r3
    5894:	1021883a 	mov	r16,r2
    5898:	1823883a 	mov	r17,r3
    589c:	000cd2c0 	call	cd2c <__fixdfsi>
    58a0:	000d883a 	mov	r6,zero
    58a4:	000f883a 	mov	r7,zero
    58a8:	8009883a 	mov	r4,r16
    58ac:	880b883a 	mov	r5,r17
    58b0:	d8800d15 	stw	r2,52(sp)
    58b4:	000cb240 	call	cb24 <__ltdf2>
    58b8:	10031716 	blt	r2,zero,6518 <_dtoa_r+0xe8c>
    58bc:	d8c00d17 	ldw	r3,52(sp)
    58c0:	00800584 	movi	r2,22
    58c4:	10c1482e 	bgeu	r2,r3,5de8 <_dtoa_r+0x75c>
    58c8:	01000044 	movi	r4,1
    58cc:	d9000c15 	stw	r4,48(sp)
    58d0:	bd85c83a 	sub	r2,r23,r22
    58d4:	11bfffc4 	addi	r6,r2,-1
    58d8:	30030b16 	blt	r6,zero,6508 <_dtoa_r+0xe7c>
    58dc:	d9800a15 	stw	r6,40(sp)
    58e0:	d8001115 	stw	zero,68(sp)
    58e4:	d8c00d17 	ldw	r3,52(sp)
    58e8:	1802ff16 	blt	r3,zero,64e8 <_dtoa_r+0xe5c>
    58ec:	d9000a17 	ldw	r4,40(sp)
    58f0:	d8c00915 	stw	r3,36(sp)
    58f4:	d8001015 	stw	zero,64(sp)
    58f8:	20c9883a 	add	r4,r4,r3
    58fc:	d9000a15 	stw	r4,40(sp)
